Archive member included to satisfy reference by file (symbol)

C:\Senior-Design\Cymote\Cymote2\Cymote2\src\ASF\thirdparty\wireless\ble_smart_sdk\lib\cm0\gcc\libblusdk.a(event.o)
                              src/ASF/thirdparty/wireless/ble_smart_sdk/ble_services/ble_mgr/ble_manager.o (at_ble_event_get)
C:\Senior-Design\Cymote\Cymote2\Cymote2\src\ASF\thirdparty\wireless\ble_smart_sdk\lib\cm0\gcc\libblusdk.a(gap.o)
                              src/ASF/thirdparty/wireless/ble_smart_sdk/ble_services/ble_mgr/ble_manager.o (at_ble_device_name_set)
C:\Senior-Design\Cymote\Cymote2\Cymote2\src\ASF\thirdparty\wireless\ble_smart_sdk\lib\cm0\gcc\libblusdk.a(gatt_client.o)
                              C:\Senior-Design\Cymote\Cymote2\Cymote2\src\ASF\thirdparty\wireless\ble_smart_sdk\lib\cm0\gcc\libblusdk.a(gap.o) (init_gatt_client_module)
C:\Senior-Design\Cymote\Cymote2\Cymote2\src\ASF\thirdparty\wireless\ble_smart_sdk\lib\cm0\gcc\libblusdk.a(gatt_server.o)
                              C:\Senior-Design\Cymote\Cymote2\Cymote2\src\ASF\thirdparty\wireless\ble_smart_sdk\lib\cm0\gcc\libblusdk.a(gap.o) (initi_gatt_server_module)
C:\Senior-Design\Cymote\Cymote2\Cymote2\src\ASF\thirdparty\wireless\ble_smart_sdk\lib\cm0\gcc\libblusdk.a(l2cc_task.o)
                              C:\Senior-Design\Cymote\Cymote2\Cymote2\src\ASF\thirdparty\wireless\ble_smart_sdk\lib\cm0\gcc\libblusdk.a(gap.o) (init_l2cc_task_module)
C:\Senior-Design\Cymote\Cymote2\Cymote2\src\ASF\thirdparty\wireless\ble_smart_sdk\lib\cm0\gcc\libblusdk.a(security.o)
                              src/ASF/thirdparty/wireless/ble_smart_sdk/ble_services/ble_mgr/ble_manager.o (at_ble_authenticate)
C:\Senior-Design\Cymote\Cymote2\Cymote2\src\ASF\thirdparty\wireless\ble_smart_sdk\lib\cm0\gcc\libblusdk.a(interface.o)
                              C:\Senior-Design\Cymote\Cymote2\Cymote2\src\ASF\thirdparty\wireless\ble_smart_sdk\lib\cm0\gcc\libblusdk.a(gap.o) (rx_callback)
C:\Senior-Design\Cymote\Cymote2\Cymote2\src\ASF\thirdparty\wireless\ble_smart_sdk\lib\cm0\gcc\libblusdk.a(calib_task.o)
                              C:\Senior-Design\Cymote\Cymote2\Cymote2\src\ASF\thirdparty\wireless\ble_smart_sdk\lib\cm0\gcc\libblusdk.a(gap.o) (calib_config)
C:\Senior-Design\Cymote\Cymote2\Cymote2\src\ASF\thirdparty\wireless\ble_smart_sdk\lib\cm0\gcc\libblusdk.a(dbg_task.o)
                              C:\Senior-Design\Cymote\Cymote2\Cymote2\src\ASF\thirdparty\wireless\ble_smart_sdk\lib\cm0\gcc\libblusdk.a(gap.o) (dbg_le_set_bd_addr_req_handler)
C:\Senior-Design\Cymote\Cymote2\Cymote2\src\ASF\thirdparty\wireless\ble_smart_sdk\lib\cm0\gcc\libblusdk.a(gapc_task.o)
                              C:\Senior-Design\Cymote\Cymote2\Cymote2\src\ASF\thirdparty\wireless\ble_smart_sdk\lib\cm0\gcc\libblusdk.a(security.o) (check_ConnData_idx_role)
C:\Senior-Design\Cymote\Cymote2\Cymote2\src\ASF\thirdparty\wireless\ble_smart_sdk\lib\cm0\gcc\libblusdk.a(gapm_task.o)
                              C:\Senior-Design\Cymote\Cymote2\Cymote2\src\ASF\thirdparty\wireless\ble_smart_sdk\lib\cm0\gcc\libblusdk.a(gap.o) (gapm_reset_req_handler)
C:\Senior-Design\Cymote\Cymote2\Cymote2\src\ASF\thirdparty\wireless\ble_smart_sdk\lib\cm0\gcc\libblusdk.a(gattc_task.o)
                              C:\Senior-Design\Cymote\Cymote2\Cymote2\src\ASF\thirdparty\wireless\ble_smart_sdk\lib\cm0\gcc\libblusdk.a(gatt_server.o) (gattc_read_req_ind_parser)
C:\Senior-Design\Cymote\Cymote2\Cymote2\src\ASF\thirdparty\wireless\ble_smart_sdk\lib\cm0\gcc\libblusdk.a(gattm_task.o)
                              C:\Senior-Design\Cymote\Cymote2\Cymote2\src\ASF\thirdparty\wireless\ble_smart_sdk\lib\cm0\gcc\libblusdk.a(gatt_server.o) (gattm_add_svc_req_handler)
C:\Senior-Design\Cymote\Cymote2\Cymote2\src\ASF\thirdparty\wireless\ble_smart_sdk\lib\cm0\gcc\libblusdk.a(htpt_task.o)
                              C:\Senior-Design\Cymote\Cymote2\Cymote2\src\ASF\thirdparty\wireless\ble_smart_sdk\lib\cm0\gcc\libblusdk.a(event.o) (htpt_enable_rsp_handler)
c:/program files (x86)/atmel/studio/7.0/toolchain/arm/arm-gnu-toolchain/bin/../lib/gcc/arm-none-eabi/5.3.1/armv6-m\libgcc.a(_thumb1_case_sqi.o)
                              C:\Senior-Design\Cymote\Cymote2\Cymote2\src\ASF\thirdparty\wireless\ble_smart_sdk\lib\cm0\gcc\libblusdk.a(gap.o) (__gnu_thumb1_case_sqi)
c:/program files (x86)/atmel/studio/7.0/toolchain/arm/arm-gnu-toolchain/bin/../lib/gcc/arm-none-eabi/5.3.1/armv6-m\libgcc.a(_thumb1_case_uqi.o)
                              src/ASF/sam0/drivers/adc/adc_sam_b/adc_sam_b.o (__gnu_thumb1_case_uqi)
c:/program files (x86)/atmel/studio/7.0/toolchain/arm/arm-gnu-toolchain/bin/../lib/gcc/arm-none-eabi/5.3.1/armv6-m\libgcc.a(_thumb1_case_uhi.o)
                              src/ASF/sam0/drivers/system/system_sam_b.o (__gnu_thumb1_case_uhi)
c:/program files (x86)/atmel/studio/7.0/toolchain/arm/arm-gnu-toolchain/bin/../lib/gcc/arm-none-eabi/5.3.1/armv6-m\libgcc.a(_udivsi3.o)
                              src/ASF/sam0/drivers/uart/uart.o (__aeabi_uidiv)
c:/program files (x86)/atmel/studio/7.0/toolchain/arm/arm-gnu-toolchain/bin/../lib/gcc/arm-none-eabi/5.3.1/armv6-m\libgcc.a(_divsi3.o)
                              src/ASF/sam0/drivers/pwm/pwm.o (__aeabi_idiv)
c:/program files (x86)/atmel/studio/7.0/toolchain/arm/arm-gnu-toolchain/bin/../lib/gcc/arm-none-eabi/5.3.1/armv6-m\libgcc.a(_dvmd_tls.o)
                              c:/program files (x86)/atmel/studio/7.0/toolchain/arm/arm-gnu-toolchain/bin/../lib/gcc/arm-none-eabi/5.3.1/armv6-m\libgcc.a(_udivsi3.o) (__aeabi_idiv0)
c:/program files (x86)/atmel/studio/7.0/toolchain/arm/arm-gnu-toolchain/bin/../lib/gcc/arm-none-eabi/5.3.1/armv6-m\libgcc.a(_fixunsdfsi.o)
                              src/ASF/thirdparty/wireless/ble_smart_sdk/services/uart/console_serial.o (__aeabi_d2uiz)
c:/program files (x86)/atmel/studio/7.0/toolchain/arm/arm-gnu-toolchain/bin/../lib/gcc/arm-none-eabi/5.3.1/armv6-m\libgcc.a(mulsf3.o)
                              C:\Senior-Design\Cymote\Cymote2\Cymote2\src\ASF\thirdparty\wireless\ble_smart_sdk\lib\cm0\gcc\libblusdk.a(calib_task.o) (__aeabi_fmul)
c:/program files (x86)/atmel/studio/7.0/toolchain/arm/arm-gnu-toolchain/bin/../lib/gcc/arm-none-eabi/5.3.1/armv6-m\libgcc.a(floatunsisf.o)
                              C:\Senior-Design\Cymote\Cymote2\Cymote2\src\ASF\thirdparty\wireless\ble_smart_sdk\lib\cm0\gcc\libblusdk.a(calib_task.o) (__aeabi_ui2f)
c:/program files (x86)/atmel/studio/7.0/toolchain/arm/arm-gnu-toolchain/bin/../lib/gcc/arm-none-eabi/5.3.1/armv6-m\libgcc.a(muldf3.o)
                              src/ASF/thirdparty/wireless/ble_smart_sdk/services/uart/console_serial.o (__aeabi_dmul)
c:/program files (x86)/atmel/studio/7.0/toolchain/arm/arm-gnu-toolchain/bin/../lib/gcc/arm-none-eabi/5.3.1/armv6-m\libgcc.a(subdf3.o)
                              c:/program files (x86)/atmel/studio/7.0/toolchain/arm/arm-gnu-toolchain/bin/../lib/gcc/arm-none-eabi/5.3.1/armv6-m\libgcc.a(_fixunsdfsi.o) (__aeabi_dsub)
c:/program files (x86)/atmel/studio/7.0/toolchain/arm/arm-gnu-toolchain/bin/../lib/gcc/arm-none-eabi/5.3.1/armv6-m\libgcc.a(fixdfsi.o)
                              c:/program files (x86)/atmel/studio/7.0/toolchain/arm/arm-gnu-toolchain/bin/../lib/gcc/arm-none-eabi/5.3.1/armv6-m\libgcc.a(_fixunsdfsi.o) (__aeabi_d2iz)
c:/program files (x86)/atmel/studio/7.0/toolchain/arm/arm-gnu-toolchain/bin/../lib/gcc/arm-none-eabi/5.3.1/armv6-m\libgcc.a(floatunsidf.o)
                              src/ASF/thirdparty/wireless/ble_smart_sdk/services/uart/console_serial.o (__aeabi_ui2d)
c:/program files (x86)/atmel/studio/7.0/toolchain/arm/arm-gnu-toolchain/bin/../lib/gcc/arm-none-eabi/5.3.1/armv6-m\libgcc.a(_arm_cmpdf2.o)
                              c:/program files (x86)/atmel/studio/7.0/toolchain/arm/arm-gnu-toolchain/bin/../lib/gcc/arm-none-eabi/5.3.1/armv6-m\libgcc.a(_fixunsdfsi.o) (__aeabi_dcmpge)
c:/program files (x86)/atmel/studio/7.0/toolchain/arm/arm-gnu-toolchain/bin/../lib/gcc/arm-none-eabi/5.3.1/armv6-m\libgcc.a(_clzsi2.o)
                              c:/program files (x86)/atmel/studio/7.0/toolchain/arm/arm-gnu-toolchain/bin/../lib/gcc/arm-none-eabi/5.3.1/armv6-m\libgcc.a(mulsf3.o) (__clzsi2)
c:/program files (x86)/atmel/studio/7.0/toolchain/arm/arm-gnu-toolchain/bin/../lib/gcc/arm-none-eabi/5.3.1/armv6-m\libgcc.a(eqdf2.o)
                              c:/program files (x86)/atmel/studio/7.0/toolchain/arm/arm-gnu-toolchain/bin/../lib/gcc/arm-none-eabi/5.3.1/armv6-m\libgcc.a(_arm_cmpdf2.o) (__eqdf2)
c:/program files (x86)/atmel/studio/7.0/toolchain/arm/arm-gnu-toolchain/bin/../lib/gcc/arm-none-eabi/5.3.1/armv6-m\libgcc.a(gedf2.o)
                              c:/program files (x86)/atmel/studio/7.0/toolchain/arm/arm-gnu-toolchain/bin/../lib/gcc/arm-none-eabi/5.3.1/armv6-m\libgcc.a(_arm_cmpdf2.o) (__gedf2)
c:/program files (x86)/atmel/studio/7.0/toolchain/arm/arm-gnu-toolchain/bin/../lib/gcc/arm-none-eabi/5.3.1/armv6-m\libgcc.a(ledf2.o)
                              c:/program files (x86)/atmel/studio/7.0/toolchain/arm/arm-gnu-toolchain/bin/../lib/gcc/arm-none-eabi/5.3.1/armv6-m\libgcc.a(_arm_cmpdf2.o) (__ledf2)
c:/program files (x86)/atmel/studio/7.0/toolchain/arm/arm-gnu-toolchain/bin/../lib/gcc/arm-none-eabi/5.3.1/../../../../arm-none-eabi/lib/armv6-m\libc_nano.a(lib_a-exit.o)
                              c:/program files (x86)/atmel/studio/7.0/toolchain/arm/arm-gnu-toolchain/bin/../lib/gcc/arm-none-eabi/5.3.1/../../../../arm-none-eabi/lib/armv6-m/crt0.o (exit)
c:/program files (x86)/atmel/studio/7.0/toolchain/arm/arm-gnu-toolchain/bin/../lib/gcc/arm-none-eabi/5.3.1/../../../../arm-none-eabi/lib/armv6-m\libc_nano.a(lib_a-fflush.o)
                              src/BLE.o (fflush)
c:/program files (x86)/atmel/studio/7.0/toolchain/arm/arm-gnu-toolchain/bin/../lib/gcc/arm-none-eabi/5.3.1/../../../../arm-none-eabi/lib/armv6-m\libc_nano.a(lib_a-findfp.o)
                              c:/program files (x86)/atmel/studio/7.0/toolchain/arm/arm-gnu-toolchain/bin/../lib/gcc/arm-none-eabi/5.3.1/../../../../arm-none-eabi/lib/armv6-m\libc_nano.a(lib_a-fflush.o) (__sinit)
c:/program files (x86)/atmel/studio/7.0/toolchain/arm/arm-gnu-toolchain/bin/../lib/gcc/arm-none-eabi/5.3.1/../../../../arm-none-eabi/lib/armv6-m\libc_nano.a(lib_a-fwalk.o)
                              c:/program files (x86)/atmel/studio/7.0/toolchain/arm/arm-gnu-toolchain/bin/../lib/gcc/arm-none-eabi/5.3.1/../../../../arm-none-eabi/lib/armv6-m\libc_nano.a(lib_a-findfp.o) (_fwalk)
c:/program files (x86)/atmel/studio/7.0/toolchain/arm/arm-gnu-toolchain/bin/../lib/gcc/arm-none-eabi/5.3.1/../../../../arm-none-eabi/lib/armv6-m\libc_nano.a(lib_a-impure.o)
                              c:/program files (x86)/atmel/studio/7.0/toolchain/arm/arm-gnu-toolchain/bin/../lib/gcc/arm-none-eabi/5.3.1/../../../../arm-none-eabi/lib/armv6-m\libc_nano.a(lib_a-exit.o) (_global_impure_ptr)
c:/program files (x86)/atmel/studio/7.0/toolchain/arm/arm-gnu-toolchain/bin/../lib/gcc/arm-none-eabi/5.3.1/../../../../arm-none-eabi/lib/armv6-m\libc_nano.a(lib_a-init.o)
                              c:/program files (x86)/atmel/studio/7.0/toolchain/arm/arm-gnu-toolchain/bin/../lib/gcc/arm-none-eabi/5.3.1/../../../../arm-none-eabi/lib/armv6-m/crt0.o (__libc_init_array)
c:/program files (x86)/atmel/studio/7.0/toolchain/arm/arm-gnu-toolchain/bin/../lib/gcc/arm-none-eabi/5.3.1/../../../../arm-none-eabi/lib/armv6-m\libc_nano.a(lib_a-memcmp.o)
                              src/ASF/thirdparty/wireless/ble_smart_sdk/ble_services/ble_mgr/ble_manager.o (memcmp)
c:/program files (x86)/atmel/studio/7.0/toolchain/arm/arm-gnu-toolchain/bin/../lib/gcc/arm-none-eabi/5.3.1/../../../../arm-none-eabi/lib/armv6-m\libc_nano.a(lib_a-memcpy-stub.o)
                              src/ASF/thirdparty/wireless/ble_smart_sdk/ble_services/ble_mgr/ble_manager.o (memcpy)
c:/program files (x86)/atmel/studio/7.0/toolchain/arm/arm-gnu-toolchain/bin/../lib/gcc/arm-none-eabi/5.3.1/../../../../arm-none-eabi/lib/armv6-m\libc_nano.a(lib_a-memset.o)
                              c:/program files (x86)/atmel/studio/7.0/toolchain/arm/arm-gnu-toolchain/bin/../lib/gcc/arm-none-eabi/5.3.1/../../../../arm-none-eabi/lib/armv6-m/crt0.o (memset)
c:/program files (x86)/atmel/studio/7.0/toolchain/arm/arm-gnu-toolchain/bin/../lib/gcc/arm-none-eabi/5.3.1/../../../../arm-none-eabi/lib/armv6-m\libc_nano.a(lib_a-nano-freer.o)
                              c:/program files (x86)/atmel/studio/7.0/toolchain/arm/arm-gnu-toolchain/bin/../lib/gcc/arm-none-eabi/5.3.1/../../../../arm-none-eabi/lib/armv6-m\libc_nano.a(lib_a-fflush.o) (_free_r)
c:/program files (x86)/atmel/studio/7.0/toolchain/arm/arm-gnu-toolchain/bin/../lib/gcc/arm-none-eabi/5.3.1/../../../../arm-none-eabi/lib/armv6-m\libc_nano.a(lib_a-nano-mallocr.o)
                              c:/program files (x86)/atmel/studio/7.0/toolchain/arm/arm-gnu-toolchain/bin/../lib/gcc/arm-none-eabi/5.3.1/../../../../arm-none-eabi/lib/armv6-m\libc_nano.a(lib_a-findfp.o) (_malloc_r)
c:/program files (x86)/atmel/studio/7.0/toolchain/arm/arm-gnu-toolchain/bin/../lib/gcc/arm-none-eabi/5.3.1/../../../../arm-none-eabi/lib/armv6-m\libc_nano.a(lib_a-printf.o)
                              src/ASF/thirdparty/wireless/ble_smart_sdk/ble_services/ble_mgr/ble_manager.o (printf)
c:/program files (x86)/atmel/studio/7.0/toolchain/arm/arm-gnu-toolchain/bin/../lib/gcc/arm-none-eabi/5.3.1/../../../../arm-none-eabi/lib/armv6-m\libc_nano.a(lib_a-putchar.o)
                              src/ASF/thirdparty/wireless/ble_smart_sdk/ble_services/ble_mgr/ble_manager.o (putchar)
c:/program files (x86)/atmel/studio/7.0/toolchain/arm/arm-gnu-toolchain/bin/../lib/gcc/arm-none-eabi/5.3.1/../../../../arm-none-eabi/lib/armv6-m\libc_nano.a(lib_a-puts.o)
                              src/ASF/thirdparty/wireless/ble_smart_sdk/ble_services/ble_mgr/ble_manager.o (puts)
c:/program files (x86)/atmel/studio/7.0/toolchain/arm/arm-gnu-toolchain/bin/../lib/gcc/arm-none-eabi/5.3.1/../../../../arm-none-eabi/lib/armv6-m\libc_nano.a(lib_a-rand.o)
                              src/ASF/thirdparty/wireless/ble_smart_sdk/ble_services/ble_mgr/ble_manager.o (rand)
c:/program files (x86)/atmel/studio/7.0/toolchain/arm/arm-gnu-toolchain/bin/../lib/gcc/arm-none-eabi/5.3.1/../../../../arm-none-eabi/lib/armv6-m\libc_nano.a(lib_a-sbrkr.o)
                              c:/program files (x86)/atmel/studio/7.0/toolchain/arm/arm-gnu-toolchain/bin/../lib/gcc/arm-none-eabi/5.3.1/../../../../arm-none-eabi/lib/armv6-m\libc_nano.a(lib_a-nano-mallocr.o) (_sbrk_r)
c:/program files (x86)/atmel/studio/7.0/toolchain/arm/arm-gnu-toolchain/bin/../lib/gcc/arm-none-eabi/5.3.1/../../../../arm-none-eabi/lib/armv6-m\libc_nano.a(lib_a-setbuf.o)
                              src/ASF/thirdparty/wireless/ble_smart_sdk/services/uart/console_serial.o (setbuf)
c:/program files (x86)/atmel/studio/7.0/toolchain/arm/arm-gnu-toolchain/bin/../lib/gcc/arm-none-eabi/5.3.1/../../../../arm-none-eabi/lib/armv6-m\libc_nano.a(lib_a-setvbuf.o)
                              c:/program files (x86)/atmel/studio/7.0/toolchain/arm/arm-gnu-toolchain/bin/../lib/gcc/arm-none-eabi/5.3.1/../../../../arm-none-eabi/lib/armv6-m\libc_nano.a(lib_a-setbuf.o) (setvbuf)
c:/program files (x86)/atmel/studio/7.0/toolchain/arm/arm-gnu-toolchain/bin/../lib/gcc/arm-none-eabi/5.3.1/../../../../arm-none-eabi/lib/armv6-m\libc_nano.a(lib_a-snprintf.o)
                              src/main_sam_b.o (snprintf)
c:/program files (x86)/atmel/studio/7.0/toolchain/arm/arm-gnu-toolchain/bin/../lib/gcc/arm-none-eabi/5.3.1/../../../../arm-none-eabi/lib/armv6-m\libc_nano.a(lib_a-stdio.o)
                              c:/program files (x86)/atmel/studio/7.0/toolchain/arm/arm-gnu-toolchain/bin/../lib/gcc/arm-none-eabi/5.3.1/../../../../arm-none-eabi/lib/armv6-m\libc_nano.a(lib_a-findfp.o) (__sread)
c:/program files (x86)/atmel/studio/7.0/toolchain/arm/arm-gnu-toolchain/bin/../lib/gcc/arm-none-eabi/5.3.1/../../../../arm-none-eabi/lib/armv6-m\libc_nano.a(lib_a-strlen.o)
                              src/BLE.o (strlen)
c:/program files (x86)/atmel/studio/7.0/toolchain/arm/arm-gnu-toolchain/bin/../lib/gcc/arm-none-eabi/5.3.1/../../../../arm-none-eabi/lib/armv6-m\libc_nano.a(lib_a-wbuf.o)
                              c:/program files (x86)/atmel/studio/7.0/toolchain/arm/arm-gnu-toolchain/bin/../lib/gcc/arm-none-eabi/5.3.1/../../../../arm-none-eabi/lib/armv6-m\libc_nano.a(lib_a-puts.o) (__swbuf_r)
c:/program files (x86)/atmel/studio/7.0/toolchain/arm/arm-gnu-toolchain/bin/../lib/gcc/arm-none-eabi/5.3.1/../../../../arm-none-eabi/lib/armv6-m\libc_nano.a(lib_a-writer.o)
                              c:/program files (x86)/atmel/studio/7.0/toolchain/arm/arm-gnu-toolchain/bin/../lib/gcc/arm-none-eabi/5.3.1/../../../../arm-none-eabi/lib/armv6-m\libc_nano.a(lib_a-stdio.o) (_write_r)
c:/program files (x86)/atmel/studio/7.0/toolchain/arm/arm-gnu-toolchain/bin/../lib/gcc/arm-none-eabi/5.3.1/../../../../arm-none-eabi/lib/armv6-m\libc_nano.a(lib_a-wsetup.o)
                              c:/program files (x86)/atmel/studio/7.0/toolchain/arm/arm-gnu-toolchain/bin/../lib/gcc/arm-none-eabi/5.3.1/../../../../arm-none-eabi/lib/armv6-m\libc_nano.a(lib_a-puts.o) (__swsetup_r)
c:/program files (x86)/atmel/studio/7.0/toolchain/arm/arm-gnu-toolchain/bin/../lib/gcc/arm-none-eabi/5.3.1/../../../../arm-none-eabi/lib/armv6-m\libc_nano.a(lib_a-closer.o)
                              c:/program files (x86)/atmel/studio/7.0/toolchain/arm/arm-gnu-toolchain/bin/../lib/gcc/arm-none-eabi/5.3.1/../../../../arm-none-eabi/lib/armv6-m\libc_nano.a(lib_a-stdio.o) (_close_r)
c:/program files (x86)/atmel/studio/7.0/toolchain/arm/arm-gnu-toolchain/bin/../lib/gcc/arm-none-eabi/5.3.1/../../../../arm-none-eabi/lib/armv6-m\libc_nano.a(lib_a-lseekr.o)
                              c:/program files (x86)/atmel/studio/7.0/toolchain/arm/arm-gnu-toolchain/bin/../lib/gcc/arm-none-eabi/5.3.1/../../../../arm-none-eabi/lib/armv6-m\libc_nano.a(lib_a-stdio.o) (_lseek_r)
c:/program files (x86)/atmel/studio/7.0/toolchain/arm/arm-gnu-toolchain/bin/../lib/gcc/arm-none-eabi/5.3.1/../../../../arm-none-eabi/lib/armv6-m\libc_nano.a(lib_a-makebuf.o)
                              c:/program files (x86)/atmel/studio/7.0/toolchain/arm/arm-gnu-toolchain/bin/../lib/gcc/arm-none-eabi/5.3.1/../../../../arm-none-eabi/lib/armv6-m\libc_nano.a(lib_a-setvbuf.o) (__swhatbuf_r)
c:/program files (x86)/atmel/studio/7.0/toolchain/arm/arm-gnu-toolchain/bin/../lib/gcc/arm-none-eabi/5.3.1/../../../../arm-none-eabi/lib/armv6-m\libc_nano.a(lib_a-malloc.o)
                              c:/program files (x86)/atmel/studio/7.0/toolchain/arm/arm-gnu-toolchain/bin/../lib/gcc/arm-none-eabi/5.3.1/../../../../arm-none-eabi/lib/armv6-m\libc_nano.a(lib_a-rand.o) (malloc)
c:/program files (x86)/atmel/studio/7.0/toolchain/arm/arm-gnu-toolchain/bin/../lib/gcc/arm-none-eabi/5.3.1/../../../../arm-none-eabi/lib/armv6-m\libc_nano.a(lib_a-nano-svfprintf.o)
                              c:/program files (x86)/atmel/studio/7.0/toolchain/arm/arm-gnu-toolchain/bin/../lib/gcc/arm-none-eabi/5.3.1/../../../../arm-none-eabi/lib/armv6-m\libc_nano.a(lib_a-snprintf.o) (_svfprintf_r)
c:/program files (x86)/atmel/studio/7.0/toolchain/arm/arm-gnu-toolchain/bin/../lib/gcc/arm-none-eabi/5.3.1/../../../../arm-none-eabi/lib/armv6-m\libc_nano.a(lib_a-nano-vfprintf.o)
                              c:/program files (x86)/atmel/studio/7.0/toolchain/arm/arm-gnu-toolchain/bin/../lib/gcc/arm-none-eabi/5.3.1/../../../../arm-none-eabi/lib/armv6-m\libc_nano.a(lib_a-printf.o) (_vfprintf_r)
c:/program files (x86)/atmel/studio/7.0/toolchain/arm/arm-gnu-toolchain/bin/../lib/gcc/arm-none-eabi/5.3.1/../../../../arm-none-eabi/lib/armv6-m\libc_nano.a(lib_a-nano-vfprintf_i.o)
                              c:/program files (x86)/atmel/studio/7.0/toolchain/arm/arm-gnu-toolchain/bin/../lib/gcc/arm-none-eabi/5.3.1/../../../../arm-none-eabi/lib/armv6-m\libc_nano.a(lib_a-nano-svfprintf.o) (_printf_i)
c:/program files (x86)/atmel/studio/7.0/toolchain/arm/arm-gnu-toolchain/bin/../lib/gcc/arm-none-eabi/5.3.1/../../../../arm-none-eabi/lib/armv6-m\libc_nano.a(lib_a-putc.o)
                              c:/program files (x86)/atmel/studio/7.0/toolchain/arm/arm-gnu-toolchain/bin/../lib/gcc/arm-none-eabi/5.3.1/../../../../arm-none-eabi/lib/armv6-m\libc_nano.a(lib_a-putchar.o) (_putc_r)
c:/program files (x86)/atmel/studio/7.0/toolchain/arm/arm-gnu-toolchain/bin/../lib/gcc/arm-none-eabi/5.3.1/../../../../arm-none-eabi/lib/armv6-m\libc_nano.a(lib_a-readr.o)
                              c:/program files (x86)/atmel/studio/7.0/toolchain/arm/arm-gnu-toolchain/bin/../lib/gcc/arm-none-eabi/5.3.1/../../../../arm-none-eabi/lib/armv6-m\libc_nano.a(lib_a-stdio.o) (_read_r)
c:/program files (x86)/atmel/studio/7.0/toolchain/arm/arm-gnu-toolchain/bin/../lib/gcc/arm-none-eabi/5.3.1/../../../../arm-none-eabi/lib/armv6-m\libc_nano.a(lib_a-reent.o)
                              c:/program files (x86)/atmel/studio/7.0/toolchain/arm/arm-gnu-toolchain/bin/../lib/gcc/arm-none-eabi/5.3.1/../../../../arm-none-eabi/lib/armv6-m\libc_nano.a(lib_a-sbrkr.o) (errno)
c:/program files (x86)/atmel/studio/7.0/toolchain/arm/arm-gnu-toolchain/bin/../lib/gcc/arm-none-eabi/5.3.1/../../../../arm-none-eabi/lib/armv6-m\libc_nano.a(lib_a-fstatr.o)
                              c:/program files (x86)/atmel/studio/7.0/toolchain/arm/arm-gnu-toolchain/bin/../lib/gcc/arm-none-eabi/5.3.1/../../../../arm-none-eabi/lib/armv6-m\libc_nano.a(lib_a-makebuf.o) (_fstat_r)
c:/program files (x86)/atmel/studio/7.0/toolchain/arm/arm-gnu-toolchain/bin/../lib/gcc/arm-none-eabi/5.3.1/../../../../arm-none-eabi/lib/armv6-m\libc_nano.a(lib_a-fvwrite.o)
                              c:/program files (x86)/atmel/studio/7.0/toolchain/arm/arm-gnu-toolchain/bin/../lib/gcc/arm-none-eabi/5.3.1/../../../../arm-none-eabi/lib/armv6-m\libc_nano.a(lib_a-nano-vfprintf.o) (__sfvwrite_r)
c:/program files (x86)/atmel/studio/7.0/toolchain/arm/arm-gnu-toolchain/bin/../lib/gcc/arm-none-eabi/5.3.1/../../../../arm-none-eabi/lib/armv6-m\libc_nano.a(lib_a-isattyr.o)
                              c:/program files (x86)/atmel/studio/7.0/toolchain/arm/arm-gnu-toolchain/bin/../lib/gcc/arm-none-eabi/5.3.1/../../../../arm-none-eabi/lib/armv6-m\libc_nano.a(lib_a-makebuf.o) (_isatty_r)
c:/program files (x86)/atmel/studio/7.0/toolchain/arm/arm-gnu-toolchain/bin/../lib/gcc/arm-none-eabi/5.3.1/../../../../arm-none-eabi/lib/armv6-m\libc_nano.a(lib_a-memchr-stub.o)
                              c:/program files (x86)/atmel/studio/7.0/toolchain/arm/arm-gnu-toolchain/bin/../lib/gcc/arm-none-eabi/5.3.1/../../../../arm-none-eabi/lib/armv6-m\libc_nano.a(lib_a-nano-svfprintf.o) (memchr)
c:/program files (x86)/atmel/studio/7.0/toolchain/arm/arm-gnu-toolchain/bin/../lib/gcc/arm-none-eabi/5.3.1/../../../../arm-none-eabi/lib/armv6-m\libc_nano.a(lib_a-memmove.o)
                              c:/program files (x86)/atmel/studio/7.0/toolchain/arm/arm-gnu-toolchain/bin/../lib/gcc/arm-none-eabi/5.3.1/../../../../arm-none-eabi/lib/armv6-m\libc_nano.a(lib_a-nano-svfprintf.o) (memmove)
c:/program files (x86)/atmel/studio/7.0/toolchain/arm/arm-gnu-toolchain/bin/../lib/gcc/arm-none-eabi/5.3.1/../../../../arm-none-eabi/lib/armv6-m\libc_nano.a(lib_a-nano-reallocr.o)
                              c:/program files (x86)/atmel/studio/7.0/toolchain/arm/arm-gnu-toolchain/bin/../lib/gcc/arm-none-eabi/5.3.1/../../../../arm-none-eabi/lib/armv6-m\libc_nano.a(lib_a-nano-svfprintf.o) (_realloc_r)
c:/program files (x86)/atmel/studio/7.0/toolchain/arm/arm-gnu-toolchain/bin/../lib/gcc/arm-none-eabi/5.3.1/../../../../arm-none-eabi/lib/armv6-m\libc_nano.a(lib_a-nano-msizer.o)
                              c:/program files (x86)/atmel/studio/7.0/toolchain/arm/arm-gnu-toolchain/bin/../lib/gcc/arm-none-eabi/5.3.1/../../../../arm-none-eabi/lib/armv6-m\libc_nano.a(lib_a-nano-reallocr.o) (_malloc_usable_size_r)
c:/program files (x86)/atmel/studio/7.0/toolchain/arm/arm-gnu-toolchain/bin/../lib/gcc/arm-none-eabi/5.3.1/armv6-m\libgcc.a(_muldi3.o)
                              c:/program files (x86)/atmel/studio/7.0/toolchain/arm/arm-gnu-toolchain/bin/../lib/gcc/arm-none-eabi/5.3.1/../../../../arm-none-eabi/lib/armv6-m\libc_nano.a(lib_a-rand.o) (__aeabi_lmul)

Allocating common symbols
Common symbol       size              file

default_samb11_clock_init
                    0x8               src/ASF/thirdparty/wireless/ble_smart_sdk/src/platform_drv.o
event_param_buff_index
                    0x4               C:\Senior-Design\Cymote\Cymote2\Cymote2\src\ASF\thirdparty\wireless\ble_smart_sdk\lib\cm0\gcc\libblusdk.a(interface.o)
app_task_type       0x2               C:\Senior-Design\Cymote\Cymote2\Cymote2\src\ASF\thirdparty\wireless\ble_smart_sdk\lib\cm0\gcc\libblusdk.a(gap.o)
accelerometer_data  0x6               src/main_sam_b.o
dummy_buffer_buff   0x200             C:\Senior-Design\Cymote\Cymote2\Cymote2\src\ASF\thirdparty\wireless\ble_smart_sdk\lib\cm0\gcc\libblusdk.a(interface.o)
ble_mgr_htpt_event_cb
                    0x4               src/ASF/thirdparty/wireless/ble_smart_sdk/ble_services/ble_mgr/ble_manager.o
interface_send_msg  0x200             C:\Senior-Design\Cymote\Cymote2\Cymote2\src\ASF\thirdparty\wireless\ble_smart_sdk\lib\cm0\gcc\libblusdk.a(interface.o)
rwip_prevent_sleep_set
                    0x4               src/ASF/thirdparty/wireless/ble_smart_sdk/src/platform_drv.o
platform_unregister_isr
                    0x4               src/ASF/thirdparty/wireless/ble_smart_sdk/src/platform_drv.o
system_clock_value  0x4               src/ASF/sam0/drivers/system/system_sam_b.o
uart_instance       0x24              src/ASF/thirdparty/wireless/ble_smart_sdk/services/uart/console_serial.o
errno               0x4               c:/program files (x86)/atmel/studio/7.0/toolchain/arm/arm-gnu-toolchain/bin/../lib/gcc/arm-none-eabi/5.3.1/../../../../arm-none-eabi/lib/armv6-m\libc_nano.a(lib_a-reent.o)
ble_mgr_gatt_server_event_cb
                    0x14              src/ASF/thirdparty/wireless/ble_smart_sdk/ble_services/ble_mgr/ble_manager.o
wakeup_event_pending
                    0x4               src/ASF/thirdparty/wireless/ble_smart_sdk/src/platform_drv.o
watched_event       0xc               C:\Senior-Design\Cymote\Cymote2\Cymote2\src\ASF\thirdparty\wireless\ble_smart_sdk\lib\cm0\gcc\libblusdk.a(event.o)
rwip_prevent_sleep_clear
                    0x4               src/ASF/thirdparty/wireless/ble_smart_sdk/src/platform_drv.o
cymote_connection_handle
                    0x2               src/main_sam_b.o
_gpio_instances     0xd8              src/ASF/sam0/drivers/gpio/gpio.o
ptr_get             0x4               src/ASF/sam0/utils/stdio/read.o
ble_dev_info        0x26c             src/ASF/thirdparty/wireless/ble_smart_sdk/ble_services/ble_mgr/ble_manager.o
actualfreq          0x4               src/ASF/thirdparty/wireless/ble_smart_sdk/src/platform_drv.o
joystick_data       0x4               src/main_sam_b.o
ptr_put             0x4               src/ASF/sam0/utils/stdio/write.o
port_list           0x32              src/ASF/thirdparty/wireless/ble_smart_sdk/src/platform_drv.o
ble_device_count    0x1               src/ASF/thirdparty/wireless/ble_smart_sdk/ble_services/ble_mgr/ble_manager.o
_uart_instances     0x8               src/ASF/sam0/drivers/uart/uart.o
rx_buffer           0x280             src/ASF/thirdparty/wireless/ble_smart_sdk/src/platform_drv.o
ble_mgr_dtm_event_cb
                    0x14              src/ASF/thirdparty/wireless/ble_smart_sdk/ble_services/ble_mgr/ble_manager.o
ble_mgr_gap_event_cb
                    0x14              src/ASF/thirdparty/wireless/ble_smart_sdk/ble_services/ble_mgr/ble_manager.o
ble_mgr_gatt_client_event_cb
                    0x14              src/ASF/thirdparty/wireless/ble_smart_sdk/ble_services/ble_mgr/ble_manager.o
connected_state_info
                    0x12              src/ASF/thirdparty/wireless/ble_smart_sdk/ble_services/ble_mgr/ble_manager.o
gstrConnData        0x90              C:\Senior-Design\Cymote\Cymote2\Cymote2\src\ASF\thirdparty\wireless\ble_smart_sdk\lib\cm0\gcc\libblusdk.a(gap.o)
gyroscope_data      0x6               src/main_sam_b.o
pf_cfg              0x1c              src/ASF/thirdparty/wireless/ble_smart_sdk/ble_services/ble_mgr/ble_manager.o
platform_register_isr
                    0x4               src/ASF/thirdparty/wireless/ble_smart_sdk/src/platform_drv.o
magnetometer_data   0x6               src/main_sam_b.o
config_uart         0x28              src/ASF/thirdparty/wireless/ble_smart_sdk/services/uart/console_serial.o
cymote_gatt_service_handle
                    0x140             src/main_sam_b.o
stdio_base          0x4               src/ASF/sam0/utils/stdio/write.o
buttons             0x2               src/main_sam_b.o
handle_ext_wakeup_isr
                    0x4               src/ASF/thirdparty/wireless/ble_smart_sdk/src/platform_drv.o
event               0x1               src/ASF/thirdparty/wireless/ble_smart_sdk/ble_services/ble_mgr/ble_manager.o
ble_mgr_l2cap_event_cb
                    0x4               src/ASF/thirdparty/wireless/ble_smart_sdk/ble_services/ble_mgr/ble_manager.o
scan_info           0x334             src/ASF/thirdparty/wireless/ble_smart_sdk/ble_services/ble_mgr/ble_manager.o
wakeup_source_active_cb
                    0x4               src/ASF/thirdparty/wireless/ble_smart_sdk/src/platform_drv.o
console_instance    0x24              src/main_sam_b.o
samb11_app_resume_cb
                    0x4               src/ASF/thirdparty/wireless/ble_smart_sdk/src/platform_drv.o
updateuartbr_fp     0x4               src/ASF/thirdparty/wireless/ble_smart_sdk/src/platform_drv.o
apps_resume_cb      0x4               src/ASF/thirdparty/wireless/ble_smart_sdk/src/platform_drv.o
ble_event_params    0x20c             src/ASF/thirdparty/wireless/ble_smart_sdk/ble_services/ble_mgr/ble_manager.o
device              0xd8              C:\Senior-Design\Cymote\Cymote2\Cymote2\src\ASF\thirdparty\wireless\ble_smart_sdk\lib\cm0\gcc\libblusdk.a(gap.o)
cymote_service_handler
                    0x140             src/main_sam_b.o
wakeup_source_callback
                    0xc               src/ASF/thirdparty/wireless/ble_smart_sdk/src/port_from_sdk.o
ble_mgr_custom_event_cb
                    0x4               src/ASF/thirdparty/wireless/ble_smart_sdk/ble_services/ble_mgr/ble_manager.o
plf_event_buff_index
                    0x2               src/ASF/thirdparty/wireless/ble_smart_sdk/src/platform_drv.o

Discarded input sections

 .text          0x00000000        0x0 c:/program files (x86)/atmel/studio/7.0/toolchain/arm/arm-gnu-toolchain/bin/../lib/gcc/arm-none-eabi/5.3.1/armv6-m/crti.o
 .data          0x00000000        0x0 c:/program files (x86)/atmel/studio/7.0/toolchain/arm/arm-gnu-toolchain/bin/../lib/gcc/arm-none-eabi/5.3.1/armv6-m/crti.o
 .bss           0x00000000        0x0 c:/program files (x86)/atmel/studio/7.0/toolchain/arm/arm-gnu-toolchain/bin/../lib/gcc/arm-none-eabi/5.3.1/armv6-m/crti.o
 .data          0x00000000        0x4 c:/program files (x86)/atmel/studio/7.0/toolchain/arm/arm-gnu-toolchain/bin/../lib/gcc/arm-none-eabi/5.3.1/armv6-m/crtbegin.o
 .text          0x00000000       0x78 c:/program files (x86)/atmel/studio/7.0/toolchain/arm/arm-gnu-toolchain/bin/../lib/gcc/arm-none-eabi/5.3.1/../../../../arm-none-eabi/lib/armv6-m/crt0.o
 .data          0x00000000        0x0 c:/program files (x86)/atmel/studio/7.0/toolchain/arm/arm-gnu-toolchain/bin/../lib/gcc/arm-none-eabi/5.3.1/../../../../arm-none-eabi/lib/armv6-m/crt0.o
 .bss           0x00000000        0x0 c:/program files (x86)/atmel/studio/7.0/toolchain/arm/arm-gnu-toolchain/bin/../lib/gcc/arm-none-eabi/5.3.1/../../../../arm-none-eabi/lib/armv6-m/crt0.o
 .ARM.extab     0x00000000        0x0 c:/program files (x86)/atmel/studio/7.0/toolchain/arm/arm-gnu-toolchain/bin/../lib/gcc/arm-none-eabi/5.3.1/../../../../arm-none-eabi/lib/armv6-m/crt0.o
 .ARM.exidx     0x00000000        0x8 c:/program files (x86)/atmel/studio/7.0/toolchain/arm/arm-gnu-toolchain/bin/../lib/gcc/arm-none-eabi/5.3.1/../../../../arm-none-eabi/lib/armv6-m/crt0.o
 .ARM.attributes
                0x00000000       0x1b c:/program files (x86)/atmel/studio/7.0/toolchain/arm/arm-gnu-toolchain/bin/../lib/gcc/arm-none-eabi/5.3.1/../../../../arm-none-eabi/lib/armv6-m/crt0.o
 .text          0x00000000        0x0 src/ADC_GPIO.o
 .data          0x00000000        0x0 src/ADC_GPIO.o
 .bss           0x00000000        0x0 src/ADC_GPIO.o
 .bss.cpu_irq_critical_section_counter
                0x00000000        0x4 src/ADC_GPIO.o
 .bss.cpu_irq_prev_interrupt_state
                0x00000000        0x1 src/ADC_GPIO.o
 .text          0x00000000        0x0 src/ASF/sam0/drivers/adc/adc_sam_b/adc_sam_b.o
 .data          0x00000000        0x0 src/ASF/sam0/drivers/adc/adc_sam_b/adc_sam_b.o
 .bss           0x00000000        0x0 src/ASF/sam0/drivers/adc/adc_sam_b/adc_sam_b.o
 .text.adc_get_status
                0x00000000       0x10 src/ASF/sam0/drivers/adc/adc_sam_b/adc_sam_b.o
 .text.adc_disable
                0x00000000       0x20 src/ASF/sam0/drivers/adc/adc_sam_b/adc_sam_b.o
 .text.adc_reset
                0x00000000       0x10 src/ASF/sam0/drivers/adc/adc_sam_b/adc_sam_b.o
 .bss.cpu_irq_critical_section_counter
                0x00000000        0x4 src/ASF/sam0/drivers/adc/adc_sam_b/adc_sam_b.o
 .bss.cpu_irq_prev_interrupt_state
                0x00000000        0x1 src/ASF/sam0/drivers/adc/adc_sam_b/adc_sam_b.o
 .text          0x00000000        0x0 src/ASF/sam0/drivers/pwm/pwm.o
 .data          0x00000000        0x0 src/ASF/sam0/drivers/pwm/pwm.o
 .bss           0x00000000        0x0 src/ASF/sam0/drivers/pwm/pwm.o
 .text._pwm_reg_period
                0x00000000       0x1c src/ASF/sam0/drivers/pwm/pwm.o
 .text._pwm_reg_agcdata_in
                0x00000000       0x44 src/ASF/sam0/drivers/pwm/pwm.o
 .text.pwm_get_config_defaults
                0x00000000       0x18 src/ASF/sam0/drivers/pwm/pwm.o
 .text.pwm_set_duty_cycle
                0x00000000       0x74 src/ASF/sam0/drivers/pwm/pwm.o
 .text.pwm_set_period
                0x00000000       0x58 src/ASF/sam0/drivers/pwm/pwm.o
 .text.pwm_init
                0x00000000       0xa8 src/ASF/sam0/drivers/pwm/pwm.o
 .text.pwm_enable
                0x00000000       0x54 src/ASF/sam0/drivers/pwm/pwm.o
 .text.pwm_disable
                0x00000000       0x54 src/ASF/sam0/drivers/pwm/pwm.o
 .text.pwm_reset
                0x00000000       0x28 src/ASF/sam0/drivers/pwm/pwm.o
 .bss.cpu_irq_critical_section_counter
                0x00000000        0x4 src/ASF/sam0/drivers/pwm/pwm.o
 .bss.cpu_irq_prev_interrupt_state
                0x00000000        0x1 src/ASF/sam0/drivers/pwm/pwm.o
 .comment       0x00000000       0x5a src/ASF/sam0/drivers/pwm/pwm.o
 .ARM.attributes
                0x00000000       0x31 src/ASF/sam0/drivers/pwm/pwm.o
 .text          0x00000000        0x0 src/ASF/sam0/drivers/timer/timer.o
 .data          0x00000000        0x0 src/ASF/sam0/drivers/timer/timer.o
 .bss           0x00000000        0x0 src/ASF/sam0/drivers/timer/timer.o
 .text.timer_get_config_defaults
                0x00000000        0xa src/ASF/sam0/drivers/timer/timer.o
 .text.timer_get_value
                0x00000000        0x8 src/ASF/sam0/drivers/timer/timer.o
 .text.timer_set_value
                0x00000000        0x8 src/ASF/sam0/drivers/timer/timer.o
 .text.timer_get_interrupt_status
                0x00000000        0xa src/ASF/sam0/drivers/timer/timer.o
 .text.timer_clear_interrupt_status
                0x00000000       0x10 src/ASF/sam0/drivers/timer/timer.o
 .text.timer_isr_handler
                0x00000000       0x24 src/ASF/sam0/drivers/timer/timer.o
 .text.timer_enable
                0x00000000        0xe src/ASF/sam0/drivers/timer/timer.o
 .text.timer_disable
                0x00000000        0xe src/ASF/sam0/drivers/timer/timer.o
 .text.timer_register_callback
                0x00000000        0xc src/ASF/sam0/drivers/timer/timer.o
 .text.timer_unregister_callback
                0x00000000        0xc src/ASF/sam0/drivers/timer/timer.o
 .text.timer_init
                0x00000000       0x3c src/ASF/sam0/drivers/timer/timer.o
 .bss.cpu_irq_critical_section_counter
                0x00000000        0x4 src/ASF/sam0/drivers/timer/timer.o
 .bss.cpu_irq_prev_interrupt_state
                0x00000000        0x1 src/ASF/sam0/drivers/timer/timer.o
 .bss.timer_callback
                0x00000000        0x4 src/ASF/sam0/drivers/timer/timer.o
 .comment       0x00000000       0x5a src/ASF/sam0/drivers/timer/timer.o
 .ARM.attributes
                0x00000000       0x31 src/ASF/sam0/drivers/timer/timer.o
 .text          0x00000000        0x0 src/ASF/common/utils/interrupt/interrupt_sam_nvic.o
 .data          0x00000000        0x0 src/ASF/common/utils/interrupt/interrupt_sam_nvic.o
 .bss           0x00000000        0x0 src/ASF/common/utils/interrupt/interrupt_sam_nvic.o
 .text.cpu_irq_enter_critical
                0x00000000       0x34 src/ASF/common/utils/interrupt/interrupt_sam_nvic.o
 .text.cpu_irq_leave_critical
                0x00000000       0x30 src/ASF/common/utils/interrupt/interrupt_sam_nvic.o
 .data.g_interrupt_enabled
                0x00000000        0x1 src/ASF/common/utils/interrupt/interrupt_sam_nvic.o
 .bss.cpu_irq_critical_section_counter
                0x00000000        0x4 src/ASF/common/utils/interrupt/interrupt_sam_nvic.o
 .bss.cpu_irq_prev_interrupt_state
                0x00000000        0x1 src/ASF/common/utils/interrupt/interrupt_sam_nvic.o
 .comment       0x00000000       0x5a src/ASF/common/utils/interrupt/interrupt_sam_nvic.o
 .ARM.attributes
                0x00000000       0x31 src/ASF/common/utils/interrupt/interrupt_sam_nvic.o
 .text          0x00000000        0x0 src/ASF/sam0/boards/samb11_xplained_pro/board_init.o
 .data          0x00000000        0x0 src/ASF/sam0/boards/samb11_xplained_pro/board_init.o
 .bss           0x00000000        0x0 src/ASF/sam0/boards/samb11_xplained_pro/board_init.o
 .text.system_board_init
                0x00000000        0x2 src/ASF/sam0/boards/samb11_xplained_pro/board_init.o
 .bss.cpu_irq_critical_section_counter
                0x00000000        0x4 src/ASF/sam0/boards/samb11_xplained_pro/board_init.o
 .bss.cpu_irq_prev_interrupt_state
                0x00000000        0x1 src/ASF/sam0/boards/samb11_xplained_pro/board_init.o
 .comment       0x00000000       0x5a src/ASF/sam0/boards/samb11_xplained_pro/board_init.o
 .ARM.attributes
                0x00000000       0x31 src/ASF/sam0/boards/samb11_xplained_pro/board_init.o
 .text          0x00000000        0x0 src/ASF/sam0/drivers/dualtimer/dualtimer.o
 .data          0x00000000        0x0 src/ASF/sam0/drivers/dualtimer/dualtimer.o
 .bss           0x00000000        0x0 src/ASF/sam0/drivers/dualtimer/dualtimer.o
 .text.dualtimer_get_value
                0x00000000       0x14 src/ASF/sam0/drivers/dualtimer/dualtimer.o
 .text.dualtimer_get_status
                0x00000000       0x1c src/ASF/sam0/drivers/dualtimer/dualtimer.o
 .text.dualtimer_get_interrupt_status
                0x00000000       0x1c src/ASF/sam0/drivers/dualtimer/dualtimer.o
 .text.dualtimer_clear_interrupt_status
                0x00000000       0x1c src/ASF/sam0/drivers/dualtimer/dualtimer.o
 .text.dualtimer_unregister_callback
                0x00000000       0x1c src/ASF/sam0/drivers/dualtimer/dualtimer.o
 .bss.cpu_irq_critical_section_counter
                0x00000000        0x4 src/ASF/sam0/drivers/dualtimer/dualtimer.o
 .bss.cpu_irq_prev_interrupt_state
                0x00000000        0x1 src/ASF/sam0/drivers/dualtimer/dualtimer.o
 .text          0x00000000        0x0 src/ASF/sam0/drivers/gpio/gpio.o
 .data          0x00000000        0x0 src/ASF/sam0/drivers/gpio/gpio.o
 .bss           0x00000000        0x0 src/ASF/sam0/drivers/gpio/gpio.o
 .text.gpio_pin_get_output_level
                0x00000000       0x3c src/ASF/sam0/drivers/gpio/gpio.o
 .text.gpio_pin_toggle_output_level
                0x00000000       0x40 src/ASF/sam0/drivers/gpio/gpio.o
 .text.gpio_unregister_callback
                0x00000000       0x44 src/ASF/sam0/drivers/gpio/gpio.o
 .bss.cpu_irq_critical_section_counter
                0x00000000        0x4 src/ASF/sam0/drivers/gpio/gpio.o
 .bss.cpu_irq_prev_interrupt_state
                0x00000000        0x1 src/ASF/sam0/drivers/gpio/gpio.o
 .text          0x00000000        0x0 src/ASF/sam0/drivers/system/system_sam_b.o
 .data          0x00000000        0x0 src/ASF/sam0/drivers/system/system_sam_b.o
 .bss           0x00000000        0x0 src/ASF/sam0/drivers/system/system_sam_b.o
 .text.system_clock_peripheral_disable
                0x00000000      0x200 src/ASF/sam0/drivers/system/system_sam_b.o
 .text.system_clock_peripheral_freq_config
                0x00000000      0x128 src/ASF/sam0/drivers/system/system_sam_b.o
 .text.system_global_reset
                0x00000000       0x18 src/ASF/sam0/drivers/system/system_sam_b.o
 .text.system_unregister_isr
                0x00000000        0xe src/ASF/sam0/drivers/system/system_sam_b.o
 .text.system_calibration_get_config_defaults
                0x00000000       0x12 src/ASF/sam0/drivers/system/system_sam_b.o
 .text.system_calibration_set_config
                0x00000000       0x2c src/ASF/sam0/drivers/system/system_sam_b.o
 .text.system_calibration_get_interrupt_status
                0x00000000       0x80 src/ASF/sam0/drivers/system/system_sam_b.o
 .text.system_osc_calibration_enable
                0x00000000       0x10 src/ASF/sam0/drivers/system/system_sam_b.o
 .text.system_osc_calibration_disable
                0x00000000       0x10 src/ASF/sam0/drivers/system/system_sam_b.o
 .text.system_osc_calibration_get_status
                0x00000000       0x18 src/ASF/sam0/drivers/system/system_sam_b.o
 .text.system_osc_calibration_clear_status
                0x00000000        0x2 src/ASF/sam0/drivers/system/system_sam_b.o
 .text.system_osc_calibration_result
                0x00000000       0x18 src/ASF/sam0/drivers/system/system_sam_b.o
 .text.system_rtc_calibration_enable
                0x00000000       0x10 src/ASF/sam0/drivers/system/system_sam_b.o
 .text.system_rtc_calibration_disable
                0x00000000       0x10 src/ASF/sam0/drivers/system/system_sam_b.o
 .text.system_rtc_calibration_get_status
                0x00000000       0x18 src/ASF/sam0/drivers/system/system_sam_b.o
 .text.system_rtc_calibration_clear_status
                0x00000000        0x2 src/ASF/sam0/drivers/system/system_sam_b.o
 .text.system_rtc_calibration_result
                0x00000000       0x18 src/ASF/sam0/drivers/system/system_sam_b.o
 .text.system_clock_aon_config
                0x00000000       0xb8 src/ASF/sam0/drivers/system/system_sam_b.o
 .text.system_clock_peripheral_aon_enable
                0x00000000       0x30 src/ASF/sam0/drivers/system/system_sam_b.o
 .text.system_clock_peripheral_aon_disable
                0x00000000       0x34 src/ASF/sam0/drivers/system/system_sam_b.o
 .bss.cpu_irq_critical_section_counter
                0x00000000        0x4 src/ASF/sam0/drivers/system/system_sam_b.o
 .bss.cpu_irq_prev_interrupt_state
                0x00000000        0x1 src/ASF/sam0/drivers/system/system_sam_b.o
 .text          0x00000000        0x0 src/ASF/sam0/drivers/uart/uart.o
 .data          0x00000000        0x0 src/ASF/sam0/drivers/uart/uart.o
 .bss           0x00000000        0x0 src/ASF/sam0/drivers/uart/uart.o
 .text.uart_write_buffer_wait
                0x00000000       0x20 src/ASF/sam0/drivers/uart/uart.o
 .text.uart_read_buffer_wait
                0x00000000       0x20 src/ASF/sam0/drivers/uart/uart.o
 .text.uart_write_buffer_job
                0x00000000       0x28 src/ASF/sam0/drivers/uart/uart.o
 .text.uart_unregister_callback
                0x00000000       0x16 src/ASF/sam0/drivers/uart/uart.o
 .text.uart_enable_transmit_dma
                0x00000000       0x30 src/ASF/sam0/drivers/uart/uart.o
 .text.uart_disable_transmit_dma
                0x00000000       0x30 src/ASF/sam0/drivers/uart/uart.o
 .text.uart_enable_receive_dma
                0x00000000       0x30 src/ASF/sam0/drivers/uart/uart.o
 .text.uart_disable_receive_dma
                0x00000000       0x30 src/ASF/sam0/drivers/uart/uart.o
 .bss.cpu_irq_critical_section_counter
                0x00000000        0x4 src/ASF/sam0/drivers/uart/uart.o
 .bss.cpu_irq_prev_interrupt_state
                0x00000000        0x1 src/ASF/sam0/drivers/uart/uart.o
 .text          0x00000000        0x0 src/ASF/sam0/utils/cmsis/samb11/source/gcc/startup_samb11.o
 .data          0x00000000        0x0 src/ASF/sam0/utils/cmsis/samb11/source/gcc/startup_samb11.o
 .bss           0x00000000        0x0 src/ASF/sam0/utils/cmsis/samb11/source/gcc/startup_samb11.o
 .text          0x00000000        0x0 src/ASF/sam0/utils/cmsis/samb11/source/system_samb11.o
 .data          0x00000000        0x0 src/ASF/sam0/utils/cmsis/samb11/source/system_samb11.o
 .bss           0x00000000        0x0 src/ASF/sam0/utils/cmsis/samb11/source/system_samb11.o
 .text.SystemInit
                0x00000000       0x10 src/ASF/sam0/utils/cmsis/samb11/source/system_samb11.o
 .text.SystemCoreClockUpdate
                0x00000000       0x10 src/ASF/sam0/utils/cmsis/samb11/source/system_samb11.o
 .data.SystemCoreClock
                0x00000000        0x4 src/ASF/sam0/utils/cmsis/samb11/source/system_samb11.o
 .comment       0x00000000       0x5a src/ASF/sam0/utils/cmsis/samb11/source/system_samb11.o
 .ARM.attributes
                0x00000000       0x31 src/ASF/sam0/utils/cmsis/samb11/source/system_samb11.o
 .text          0x00000000        0x0 src/ASF/sam0/utils/stdio/read.o
 .data          0x00000000        0x0 src/ASF/sam0/utils/stdio/read.o
 .bss           0x00000000        0x0 src/ASF/sam0/utils/stdio/read.o
 .bss.cpu_irq_critical_section_counter
                0x00000000        0x4 src/ASF/sam0/utils/stdio/read.o
 .bss.cpu_irq_prev_interrupt_state
                0x00000000        0x1 src/ASF/sam0/utils/stdio/read.o
 .text          0x00000000        0x0 src/ASF/sam0/utils/stdio/write.o
 .data          0x00000000        0x0 src/ASF/sam0/utils/stdio/write.o
 .bss           0x00000000        0x0 src/ASF/sam0/utils/stdio/write.o
 .bss.cpu_irq_critical_section_counter
                0x00000000        0x4 src/ASF/sam0/utils/stdio/write.o
 .bss.cpu_irq_prev_interrupt_state
                0x00000000        0x1 src/ASF/sam0/utils/stdio/write.o
 .text          0x00000000        0x0 src/ASF/sam0/utils/syscalls/gcc/syscalls.o
 .data          0x00000000        0x0 src/ASF/sam0/utils/syscalls/gcc/syscalls.o
 .bss           0x00000000        0x0 src/ASF/sam0/utils/syscalls/gcc/syscalls.o
 .text.link     0x00000000        0x6 src/ASF/sam0/utils/syscalls/gcc/syscalls.o
 .text._exit    0x00000000        0x4 src/ASF/sam0/utils/syscalls/gcc/syscalls.o
 .text._kill    0x00000000        0x2 src/ASF/sam0/utils/syscalls/gcc/syscalls.o
 .text._getpid  0x00000000        0x6 src/ASF/sam0/utils/syscalls/gcc/syscalls.o
 .text          0x00000000        0x0 src/ASF/thirdparty/wireless/ble_smart_sdk/ble_services/ble_mgr/ble_manager.o
 .data          0x00000000        0x0 src/ASF/thirdparty/wireless/ble_smart_sdk/ble_services/ble_mgr/ble_manager.o
 .bss           0x00000000        0x0 src/ASF/thirdparty/wireless/ble_smart_sdk/ble_services/ble_mgr/ble_manager.o
 .text.ble_set_ulp_mode
                0x00000000        0xc src/ASF/thirdparty/wireless/ble_smart_sdk/ble_services/ble_mgr/ble_manager.o
 .text.ble_get_ulp_status
                0x00000000        0xc src/ASF/thirdparty/wireless/ble_smart_sdk/ble_services/ble_mgr/ble_manager.o
 .text.ble_set_device_name
                0x00000000       0x1c src/ASF/thirdparty/wireless/ble_smart_sdk/ble_services/ble_mgr/ble_manager.o
 .text.gap_dev_connect
                0x00000000       0x48 src/ASF/thirdparty/wireless/ble_smart_sdk/ble_services/ble_mgr/ble_manager.o
 .text.gap_dev_scan
                0x00000000       0x58 src/ASF/thirdparty/wireless/ble_smart_sdk/ble_services/ble_mgr/ble_manager.o
 .text.scan_info_parse
                0x00000000       0xd0 src/ASF/thirdparty/wireless/ble_smart_sdk/ble_services/ble_mgr/ble_manager.o
 .text.ble_send_slave_sec_request
                0x00000000        0x4 src/ASF/thirdparty/wireless/ble_smart_sdk/ble_services/ble_mgr/ble_manager.o
 .text.ble_connected_device_role
                0x00000000       0x34 src/ASF/thirdparty/wireless/ble_smart_sdk/ble_services/ble_mgr/ble_manager.o
 .text.ble_check_ispheripheral
                0x00000000       0x24 src/ASF/thirdparty/wireless/ble_smart_sdk/ble_services/ble_mgr/ble_manager.o
 .text.ble_check_iscentral
                0x00000000       0x28 src/ASF/thirdparty/wireless/ble_smart_sdk/ble_services/ble_mgr/ble_manager.o
 .text.ble_disconnected_device_role
                0x00000000       0x34 src/ASF/thirdparty/wireless/ble_smart_sdk/ble_services/ble_mgr/ble_manager.o
 .text.ble_check_disconnected_iscentral
                0x00000000       0x24 src/ASF/thirdparty/wireless/ble_smart_sdk/ble_services/ble_mgr/ble_manager.o
 .text.ble_check_device_state
                0x00000000       0x30 src/ASF/thirdparty/wireless/ble_smart_sdk/ble_services/ble_mgr/ble_manager.o
 .text.register_ble_user_event_cb
                0x00000000        0xc src/ASF/thirdparty/wireless/ble_smart_sdk/ble_services/ble_mgr/ble_manager.o
 .bss.cpu_irq_critical_section_counter
                0x00000000        0x4 src/ASF/thirdparty/wireless/ble_smart_sdk/ble_services/ble_mgr/ble_manager.o
 .bss.cpu_irq_prev_interrupt_state
                0x00000000        0x1 src/ASF/thirdparty/wireless/ble_smart_sdk/ble_services/ble_mgr/ble_manager.o
 .text          0x00000000        0x0 src/ASF/thirdparty/wireless/ble_smart_sdk/services/dualtimer/timer_hw.o
 .data          0x00000000        0x0 src/ASF/thirdparty/wireless/ble_smart_sdk/services/dualtimer/timer_hw.o
 .bss           0x00000000        0x0 src/ASF/thirdparty/wireless/ble_smart_sdk/services/dualtimer/timer_hw.o
 .text.hw_timer_stop
                0x00000000       0x14 src/ASF/thirdparty/wireless/ble_smart_sdk/services/dualtimer/timer_hw.o
 .bss.cpu_irq_critical_section_counter
                0x00000000        0x4 src/ASF/thirdparty/wireless/ble_smart_sdk/services/dualtimer/timer_hw.o
 .bss.cpu_irq_prev_interrupt_state
                0x00000000        0x1 src/ASF/thirdparty/wireless/ble_smart_sdk/services/dualtimer/timer_hw.o
 .text          0x00000000        0x0 src/ASF/thirdparty/wireless/ble_smart_sdk/services/gpio/button.o
 .data          0x00000000        0x0 src/ASF/thirdparty/wireless/ble_smart_sdk/services/gpio/button.o
 .bss           0x00000000        0x0 src/ASF/thirdparty/wireless/ble_smart_sdk/services/gpio/button.o
 .bss.cpu_irq_critical_section_counter
                0x00000000        0x4 src/ASF/thirdparty/wireless/ble_smart_sdk/services/gpio/button.o
 .bss.cpu_irq_prev_interrupt_state
                0x00000000        0x1 src/ASF/thirdparty/wireless/ble_smart_sdk/services/gpio/button.o
 .text          0x00000000        0x0 src/ASF/thirdparty/wireless/ble_smart_sdk/services/gpio/led.o
 .data          0x00000000        0x0 src/ASF/thirdparty/wireless/ble_smart_sdk/services/gpio/led.o
 .bss           0x00000000        0x0 src/ASF/thirdparty/wireless/ble_smart_sdk/services/gpio/led.o
 .text.led_init
                0x00000000       0x24 src/ASF/thirdparty/wireless/ble_smart_sdk/services/gpio/led.o
 .bss.cpu_irq_critical_section_counter
                0x00000000        0x4 src/ASF/thirdparty/wireless/ble_smart_sdk/services/gpio/led.o
 .bss.cpu_irq_prev_interrupt_state
                0x00000000        0x1 src/ASF/thirdparty/wireless/ble_smart_sdk/services/gpio/led.o
 .comment       0x00000000       0x5a src/ASF/thirdparty/wireless/ble_smart_sdk/services/gpio/led.o
 .ARM.attributes
                0x00000000       0x31 src/ASF/thirdparty/wireless/ble_smart_sdk/services/gpio/led.o
 .text          0x00000000        0x0 src/ASF/thirdparty/wireless/ble_smart_sdk/services/uart/console_serial.o
 .data          0x00000000        0x0 src/ASF/thirdparty/wireless/ble_smart_sdk/services/uart/console_serial.o
 .bss           0x00000000        0x0 src/ASF/thirdparty/wireless/ble_smart_sdk/services/uart/console_serial.o
 .text.getchar_b11
                0x00000000       0x50 src/ASF/thirdparty/wireless/ble_smart_sdk/services/uart/console_serial.o
 .text.register_uart_callback
                0x00000000       0x30 src/ASF/thirdparty/wireless/ble_smart_sdk/services/uart/console_serial.o
 .bss.cpu_irq_critical_section_counter
                0x00000000        0x4 src/ASF/thirdparty/wireless/ble_smart_sdk/services/uart/console_serial.o
 .bss.cpu_irq_prev_interrupt_state
                0x00000000        0x1 src/ASF/thirdparty/wireless/ble_smart_sdk/services/uart/console_serial.o
 .text          0x00000000        0x0 src/ASF/thirdparty/wireless/ble_smart_sdk/src/event_handler.o
 .data          0x00000000        0x0 src/ASF/thirdparty/wireless/ble_smart_sdk/src/event_handler.o
 .bss           0x00000000        0x0 src/ASF/thirdparty/wireless/ble_smart_sdk/src/event_handler.o
 .text.platform_event_get
                0x00000000       0x58 src/ASF/thirdparty/wireless/ble_smart_sdk/src/event_handler.o
 .text          0x00000000        0x0 src/ASF/thirdparty/wireless/ble_smart_sdk/src/platform_drv.o
 .data          0x00000000        0x0 src/ASF/thirdparty/wireless/ble_smart_sdk/src/platform_drv.o
 .bss           0x00000000        0x0 src/ASF/thirdparty/wireless/ble_smart_sdk/src/platform_drv.o
 .text.register_resume_callback
                0x00000000       0x14 src/ASF/thirdparty/wireless/ble_smart_sdk/src/platform_drv.o
 .text.platform_chip_reset
                0x00000000       0x84 src/ASF/thirdparty/wireless/ble_smart_sdk/src/platform_drv.o
 .bss.cpu_irq_prev_interrupt_state
                0x00000000        0x1 src/ASF/thirdparty/wireless/ble_smart_sdk/src/platform_drv.o
 .bss.cpu_irq_critical_section_counter
                0x00000000        0x4 src/ASF/thirdparty/wireless/ble_smart_sdk/src/platform_drv.o
 .text          0x00000000        0x0 src/ASF/thirdparty/wireless/ble_smart_sdk/src/port_from_sdk.o
 .data          0x00000000        0x0 src/ASF/thirdparty/wireless/ble_smart_sdk/src/port_from_sdk.o
 .bss           0x00000000        0x0 src/ASF/thirdparty/wireless/ble_smart_sdk/src/port_from_sdk.o
 .bss.cpu_irq_critical_section_counter
                0x00000000        0x4 src/ASF/thirdparty/wireless/ble_smart_sdk/src/port_from_sdk.o
 .bss.cpu_irq_prev_interrupt_state
                0x00000000        0x1 src/ASF/thirdparty/wireless/ble_smart_sdk/src/port_from_sdk.o
 .text          0x00000000        0x0 src/BLE.o
 .data          0x00000000        0x0 src/BLE.o
 .bss           0x00000000        0x0 src/BLE.o
 .text.cymote_service_define
                0x00000000        0xc src/BLE.o
 .bss.cpu_irq_critical_section_counter
                0x00000000        0x4 src/BLE.o
 .bss.cpu_irq_prev_interrupt_state
                0x00000000        0x1 src/BLE.o
 .text          0x00000000        0x0 src/Buttons.o
 .data          0x00000000        0x0 src/Buttons.o
 .bss           0x00000000        0x0 src/Buttons.o
 .bss.cpu_irq_critical_section_counter
                0x00000000        0x4 src/Buttons.o
 .bss.cpu_irq_prev_interrupt_state
                0x00000000        0x1 src/Buttons.o
 .text          0x00000000        0x0 src/LED.o
 .data          0x00000000        0x0 src/LED.o
 .bss           0x00000000        0x0 src/LED.o
 .bss.cpu_irq_critical_section_counter
                0x00000000        0x4 src/LED.o
 .bss.cpu_irq_prev_interrupt_state
                0x00000000        0x1 src/LED.o
 .text          0x00000000        0x0 src/LSM9DS0.o
 .data          0x00000000        0x0 src/LSM9DS0.o
 .bss           0x00000000        0x0 src/LSM9DS0.o
 .text.usart_serial_getchar
                0x00000000       0x18 src/LSM9DS0.o
 .text.usart_serial_putchar
                0x00000000       0x18 src/LSM9DS0.o
 .text.am_transfer
                0x00000000       0x50 src/LSM9DS0.o
 .text.g_transfer
                0x00000000       0x50 src/LSM9DS0.o
 .text.am_write
                0x00000000       0x30 src/LSM9DS0.o
 .text.g_write  0x00000000       0x30 src/LSM9DS0.o
 .text.am_read_byte
                0x00000000       0x2c src/LSM9DS0.o
 .text.g_read_byte
                0x00000000       0x2c src/LSM9DS0.o
 .text.am_read_bytes
                0x00000000       0x44 src/LSM9DS0.o
 .text.g_read_bytes
                0x00000000       0x44 src/LSM9DS0.o
 .text.bit_write_high_0
                0x00000000        0xa src/LSM9DS0.o
 .text.bit_read_0
                0x00000000        0x8 src/LSM9DS0.o
 .text.init_accelerometer_0
                0x00000000       0x24 src/LSM9DS0.o
 .text.init_accelerometer_odr
                0x00000000       0x24 src/LSM9DS0.o
 .text.init_accelerometer_scale
                0x00000000       0x24 src/LSM9DS0.o
 .text.get_raw_accelerometer_0
                0x00000000       0x40 src/LSM9DS0.o
 .text.print_calculated_accelerometer
                0x00000000       0x94 src/LSM9DS0.o
 .text.init_magnetometer_0
                0x00000000       0x28 src/LSM9DS0.o
 .text.init_magnetometer_odr
                0x00000000       0x24 src/LSM9DS0.o
 .text.init_magnetometer_scale
                0x00000000       0x24 src/LSM9DS0.o
 .text.get_raw_magnetometer_0
                0x00000000       0x40 src/LSM9DS0.o
 .text.init_gyroscope_0
                0x00000000       0x28 src/LSM9DS0.o
 .text.init_gyroscope_odr
                0x00000000       0x24 src/LSM9DS0.o
 .text.init_gyroscope_scale
                0x00000000       0x24 src/LSM9DS0.o
 .text.print_raw_gyroscope
                0x00000000       0x44 src/LSM9DS0.o
 .text.configure_console_0
                0x00000000       0x7c src/LSM9DS0.o
 .text.configure_gpio_0
                0x00000000       0x90 src/LSM9DS0.o
 .bss.cpu_irq_critical_section_counter
                0x00000000        0x4 src/LSM9DS0.o
 .rodata.str1.1
                0x00000000       0x63 src/LSM9DS0.o
 .bss.cpu_irq_prev_interrupt_state
                0x00000000        0x1 src/LSM9DS0.o
 .comment       0x00000000       0x5a src/LSM9DS0.o
 .ARM.attributes
                0x00000000       0x31 src/LSM9DS0.o
 .text          0x00000000        0x0 src/LSM9DS1.o
 .data          0x00000000        0x0 src/LSM9DS1.o
 .bss           0x00000000        0x0 src/LSM9DS1.o
 .text.usart_serial_getchar
                0x00000000       0x18 src/LSM9DS1.o
 .text.usart_serial_putchar
                0x00000000       0x18 src/LSM9DS1.o
 .text.ag_transfer
                0x00000000        0xc src/LSM9DS1.o
 .text.m_read_byte
                0x00000000       0x2c src/LSM9DS1.o
 .text.bit_write_high
                0x00000000        0xa src/LSM9DS1.o
 .text.bit_read
                0x00000000        0x8 src/LSM9DS1.o
 .text.configure_console
                0x00000000       0x7c src/LSM9DS1.o
 .bss.cpu_irq_critical_section_counter
                0x00000000        0x4 src/LSM9DS1.o
 .rodata.str1.1
                0x00000000       0x14 src/LSM9DS1.o
 .bss.cpu_irq_prev_interrupt_state
                0x00000000        0x1 src/LSM9DS1.o
 .text          0x00000000        0x0 src/main_sam_b.o
 .data          0x00000000        0x0 src/main_sam_b.o
 .bss           0x00000000        0x0 src/main_sam_b.o
 .text.default_gpio_pin_set
                0x00000000      0x188 src/main_sam_b.o
 .bss.cpu_irq_critical_section_counter
                0x00000000        0x4 src/main_sam_b.o
 .bss.cpu_irq_prev_interrupt_state
                0x00000000        0x1 src/main_sam_b.o
 .text          0x00000000        0x0 C:\Senior-Design\Cymote\Cymote2\Cymote2\src\ASF\thirdparty\wireless\ble_smart_sdk\lib\cm0\gcc\libblusdk.a(event.o)
 .data          0x00000000        0x0 C:\Senior-Design\Cymote\Cymote2\Cymote2\src\ASF\thirdparty\wireless\ble_smart_sdk\lib\cm0\gcc\libblusdk.a(event.o)
 .bss           0x00000000        0x0 C:\Senior-Design\Cymote\Cymote2\Cymote2\src\ASF\thirdparty\wireless\ble_smart_sdk\lib\cm0\gcc\libblusdk.a(event.o)
 .text.at_ble_event_user_defined_post
                0x00000000       0x24 C:\Senior-Design\Cymote\Cymote2\Cymote2\src\ASF\thirdparty\wireless\ble_smart_sdk\lib\cm0\gcc\libblusdk.a(event.o)
 .bss.gu8UserDefinedEvent
                0x00000000        0x1 C:\Senior-Design\Cymote\Cymote2\Cymote2\src\ASF\thirdparty\wireless\ble_smart_sdk\lib\cm0\gcc\libblusdk.a(event.o)
 .text          0x00000000        0x0 C:\Senior-Design\Cymote\Cymote2\Cymote2\src\ASF\thirdparty\wireless\ble_smart_sdk\lib\cm0\gcc\libblusdk.a(gap.o)
 .data          0x00000000        0x0 C:\Senior-Design\Cymote\Cymote2\Cymote2\src\ASF\thirdparty\wireless\ble_smart_sdk\lib\cm0\gcc\libblusdk.a(gap.o)
 .bss           0x00000000        0x0 C:\Senior-Design\Cymote\Cymote2\Cymote2\src\ASF\thirdparty\wireless\ble_smart_sdk\lib\cm0\gcc\libblusdk.a(gap.o)
 .text.at_ble_gap_get_peer_deviceinfo
                0x00000000       0x2e C:\Senior-Design\Cymote\Cymote2\Cymote2\src\ASF\thirdparty\wireless\ble_smart_sdk\lib\cm0\gcc\libblusdk.a(gap.o)
 .text.at_ble_set_privacy_key
                0x00000000       0x34 C:\Senior-Design\Cymote\Cymote2\Cymote2\src\ASF\thirdparty\wireless\ble_smart_sdk\lib\cm0\gcc\libblusdk.a(gap.o)
 .text.at_ble_set_gap_deviceinfo
                0x00000000       0x78 C:\Senior-Design\Cymote\Cymote2\Cymote2\src\ASF\thirdparty\wireless\ble_smart_sdk\lib\cm0\gcc\libblusdk.a(gap.o)
 .text.at_ble_set_att_config
                0x00000000       0x30 C:\Senior-Design\Cymote\Cymote2\Cymote2\src\ASF\thirdparty\wireless\ble_smart_sdk\lib\cm0\gcc\libblusdk.a(gap.o)
 .text.at_ble_set_channel_map
                0x00000000       0x18 C:\Senior-Design\Cymote\Cymote2\Cymote2\src\ASF\thirdparty\wireless\ble_smart_sdk\lib\cm0\gcc\libblusdk.a(gap.o)
 .text.at_ble_set_adv_channel_Map
                0x00000000       0x1c C:\Senior-Design\Cymote\Cymote2\Cymote2\src\ASF\thirdparty\wireless\ble_smart_sdk\lib\cm0\gcc\libblusdk.a(gap.o)
 .text.at_ble_adv_stop
                0x00000000        0xc C:\Senior-Design\Cymote\Cymote2\Cymote2\src\ASF\thirdparty\wireless\ble_smart_sdk\lib\cm0\gcc\libblusdk.a(gap.o)
 .text.at_ble_scan_start
                0x00000000       0x90 C:\Senior-Design\Cymote\Cymote2\Cymote2\src\ASF\thirdparty\wireless\ble_smart_sdk\lib\cm0\gcc\libblusdk.a(gap.o)
 .text.at_ble_set_conn_mode
                0x00000000       0x18 C:\Senior-Design\Cymote\Cymote2\Cymote2\src\ASF\thirdparty\wireless\ble_smart_sdk\lib\cm0\gcc\libblusdk.a(gap.o)
 .text.at_ble_connect
                0x00000000       0xd8 C:\Senior-Design\Cymote\Cymote2\Cymote2\src\ASF\thirdparty\wireless\ble_smart_sdk\lib\cm0\gcc\libblusdk.a(gap.o)
 .text.at_ble_whitelist_add
                0x00000000       0x20 C:\Senior-Design\Cymote\Cymote2\Cymote2\src\ASF\thirdparty\wireless\ble_smart_sdk\lib\cm0\gcc\libblusdk.a(gap.o)
 .text.at_ble_whitelist_remove
                0x00000000       0x20 C:\Senior-Design\Cymote\Cymote2\Cymote2\src\ASF\thirdparty\wireless\ble_smart_sdk\lib\cm0\gcc\libblusdk.a(gap.o)
 .text.at_ble_whitelist_clear
                0x00000000       0x14 C:\Senior-Design\Cymote\Cymote2\Cymote2\src\ASF\thirdparty\wireless\ble_smart_sdk\lib\cm0\gcc\libblusdk.a(gap.o)
 .text.at_ble_get_whitelist_size
                0x00000000       0x18 C:\Senior-Design\Cymote\Cymote2\Cymote2\src\ASF\thirdparty\wireless\ble_smart_sdk\lib\cm0\gcc\libblusdk.a(gap.o)
 .text.at_ble_connection_param_update
                0x00000000       0x64 C:\Senior-Design\Cymote\Cymote2\Cymote2\src\ASF\thirdparty\wireless\ble_smart_sdk\lib\cm0\gcc\libblusdk.a(gap.o)
 .text.at_ble_send_sec_config
                0x00000000       0x3c C:\Senior-Design\Cymote\Cymote2\Cymote2\src\ASF\thirdparty\wireless\ble_smart_sdk\lib\cm0\gcc\libblusdk.a(gap.o)
 .text.at_ble_connect_cancel
                0x00000000       0x14 C:\Senior-Design\Cymote\Cymote2\Cymote2\src\ASF\thirdparty\wireless\ble_smart_sdk\lib\cm0\gcc\libblusdk.a(gap.o)
 .text.at_ble_rx_power_get
                0x00000000       0x28 C:\Senior-Design\Cymote\Cymote2\Cymote2\src\ASF\thirdparty\wireless\ble_smart_sdk\lib\cm0\gcc\libblusdk.a(gap.o)
 .text.at_ble_tx_power_set
                0x00000000       0x24 C:\Senior-Design\Cymote\Cymote2\Cymote2\src\ASF\thirdparty\wireless\ble_smart_sdk\lib\cm0\gcc\libblusdk.a(gap.o)
 .text.at_ble_tx_power_get
                0x00000000       0x28 C:\Senior-Design\Cymote\Cymote2\Cymote2\src\ASF\thirdparty\wireless\ble_smart_sdk\lib\cm0\gcc\libblusdk.a(gap.o)
 .text.at_ble_chip_id_get
                0x00000000       0x18 C:\Senior-Design\Cymote\Cymote2\Cymote2\src\ASF\thirdparty\wireless\ble_smart_sdk\lib\cm0\gcc\libblusdk.a(gap.o)
 .text.read_32_from_BTLC1000
                0x00000000       0x10 C:\Senior-Design\Cymote\Cymote2\Cymote2\src\ASF\thirdparty\wireless\ble_smart_sdk\lib\cm0\gcc\libblusdk.a(gap.o)
 .text.at_ble_firmware_version_get
                0x00000000        0x8 C:\Senior-Design\Cymote\Cymote2\Cymote2\src\ASF\thirdparty\wireless\ble_smart_sdk\lib\cm0\gcc\libblusdk.a(gap.o)
 .text.at_ble_ll_reset
                0x00000000        0xc C:\Senior-Design\Cymote\Cymote2\Cymote2\src\ASF\thirdparty\wireless\ble_smart_sdk\lib\cm0\gcc\libblusdk.a(gap.o)
 .text.at_ble_calib_config
                0x00000000        0xc C:\Senior-Design\Cymote\Cymote2\Cymote2\src\ASF\thirdparty\wireless\ble_smart_sdk\lib\cm0\gcc\libblusdk.a(gap.o)
 .text.at_ble_calib_get_voltage
                0x00000000        0xc C:\Senior-Design\Cymote\Cymote2\Cymote2\src\ASF\thirdparty\wireless\ble_smart_sdk\lib\cm0\gcc\libblusdk.a(gap.o)
 .text.at_ble_calib_get_temp
                0x00000000        0xc C:\Senior-Design\Cymote\Cymote2\Cymote2\src\ASF\thirdparty\wireless\ble_smart_sdk\lib\cm0\gcc\libblusdk.a(gap.o)
 .text          0x00000000        0x0 C:\Senior-Design\Cymote\Cymote2\Cymote2\src\ASF\thirdparty\wireless\ble_smart_sdk\lib\cm0\gcc\libblusdk.a(gatt_client.o)
 .data          0x00000000        0x0 C:\Senior-Design\Cymote\Cymote2\Cymote2\src\ASF\thirdparty\wireless\ble_smart_sdk\lib\cm0\gcc\libblusdk.a(gatt_client.o)
 .bss           0x00000000        0x0 C:\Senior-Design\Cymote\Cymote2\Cymote2\src\ASF\thirdparty\wireless\ble_smart_sdk\lib\cm0\gcc\libblusdk.a(gatt_client.o)
 .text.at_ble_primary_service_discover_all
                0x00000000       0x28 C:\Senior-Design\Cymote\Cymote2\Cymote2\src\ASF\thirdparty\wireless\ble_smart_sdk\lib\cm0\gcc\libblusdk.a(gatt_client.o)
 .text.at_ble_primary_service_discover_by_uuid
                0x00000000       0x58 C:\Senior-Design\Cymote\Cymote2\Cymote2\src\ASF\thirdparty\wireless\ble_smart_sdk\lib\cm0\gcc\libblusdk.a(gatt_client.o)
 .text.at_ble_included_service_discover_all
                0x00000000       0x28 C:\Senior-Design\Cymote\Cymote2\Cymote2\src\ASF\thirdparty\wireless\ble_smart_sdk\lib\cm0\gcc\libblusdk.a(gatt_client.o)
 .text.at_ble_characteristic_discover_all
                0x00000000       0x28 C:\Senior-Design\Cymote\Cymote2\Cymote2\src\ASF\thirdparty\wireless\ble_smart_sdk\lib\cm0\gcc\libblusdk.a(gatt_client.o)
 .text.at_ble_characteristic_discover_by_uuid
                0x00000000       0x58 C:\Senior-Design\Cymote\Cymote2\Cymote2\src\ASF\thirdparty\wireless\ble_smart_sdk\lib\cm0\gcc\libblusdk.a(gatt_client.o)
 .text.at_ble_descriptor_discover_all
                0x00000000       0x28 C:\Senior-Design\Cymote\Cymote2\Cymote2\src\ASF\thirdparty\wireless\ble_smart_sdk\lib\cm0\gcc\libblusdk.a(gatt_client.o)
 .text.at_ble_characteristic_write
                0x00000000       0x4c C:\Senior-Design\Cymote\Cymote2\Cymote2\src\ASF\thirdparty\wireless\ble_smart_sdk\lib\cm0\gcc\libblusdk.a(gatt_client.o)
 .text.at_ble_characteristic_reliable_write_prepare
                0x00000000       0x2c C:\Senior-Design\Cymote\Cymote2\Cymote2\src\ASF\thirdparty\wireless\ble_smart_sdk\lib\cm0\gcc\libblusdk.a(gatt_client.o)
 .text.at_ble_characteristic_reliable_write_execute
                0x00000000       0x14 C:\Senior-Design\Cymote\Cymote2\Cymote2\src\ASF\thirdparty\wireless\ble_smart_sdk\lib\cm0\gcc\libblusdk.a(gatt_client.o)
 .text.at_ble_characteristic_reliable_write_cancel
                0x00000000       0x14 C:\Senior-Design\Cymote\Cymote2\Cymote2\src\ASF\thirdparty\wireless\ble_smart_sdk\lib\cm0\gcc\libblusdk.a(gatt_client.o)
 .text.at_ble_exchange_mtu
                0x00000000       0x10 C:\Senior-Design\Cymote\Cymote2\Cymote2\src\ASF\thirdparty\wireless\ble_smart_sdk\lib\cm0\gcc\libblusdk.a(gatt_client.o)
 .text.at_ble_characteristic_read_by_uuid
                0x00000000       0x50 C:\Senior-Design\Cymote\Cymote2\Cymote2\src\ASF\thirdparty\wireless\ble_smart_sdk\lib\cm0\gcc\libblusdk.a(gatt_client.o)
 .text.at_ble_characteristic_read
                0x00000000       0x34 C:\Senior-Design\Cymote\Cymote2\Cymote2\src\ASF\thirdparty\wireless\ble_smart_sdk\lib\cm0\gcc\libblusdk.a(gatt_client.o)
 .text.at_ble_characteristic_read_long
                0x00000000       0x34 C:\Senior-Design\Cymote\Cymote2\Cymote2\src\ASF\thirdparty\wireless\ble_smart_sdk\lib\cm0\gcc\libblusdk.a(gatt_client.o)
 .text.at_ble_characteristic_read_multiple
                0x00000000       0x30 C:\Senior-Design\Cymote\Cymote2\Cymote2\src\ASF\thirdparty\wireless\ble_smart_sdk\lib\cm0\gcc\libblusdk.a(gatt_client.o)
 .text          0x00000000        0x0 C:\Senior-Design\Cymote\Cymote2\Cymote2\src\ASF\thirdparty\wireless\ble_smart_sdk\lib\cm0\gcc\libblusdk.a(gatt_server.o)
 .data          0x00000000        0x0 C:\Senior-Design\Cymote\Cymote2\Cymote2\src\ASF\thirdparty\wireless\ble_smart_sdk\lib\cm0\gcc\libblusdk.a(gatt_server.o)
 .bss           0x00000000        0x0 C:\Senior-Design\Cymote\Cymote2\Cymote2\src\ASF\thirdparty\wireless\ble_smart_sdk\lib\cm0\gcc\libblusdk.a(gatt_server.o)
 .text.internal_at_ble_service_define
                0x00000000      0x3bc C:\Senior-Design\Cymote\Cymote2\Cymote2\src\ASF\thirdparty\wireless\ble_smart_sdk\lib\cm0\gcc\libblusdk.a(gatt_server.o)
 .text.at_ble_primary_service_define
                0x00000000       0x20 C:\Senior-Design\Cymote\Cymote2\Cymote2\src\ASF\thirdparty\wireless\ble_smart_sdk\lib\cm0\gcc\libblusdk.a(gatt_server.o)
 .text.at_ble_secondary_service_define
                0x00000000       0x20 C:\Senior-Design\Cymote\Cymote2\Cymote2\src\ASF\thirdparty\wireless\ble_smart_sdk\lib\cm0\gcc\libblusdk.a(gatt_server.o)
 .text.at_ble_descriptor_value_set
                0x00000000        0xc C:\Senior-Design\Cymote\Cymote2\Cymote2\src\ASF\thirdparty\wireless\ble_smart_sdk\lib\cm0\gcc\libblusdk.a(gatt_server.o)
 .text.at_ble_descriptor_value_get
                0x00000000        0xc C:\Senior-Design\Cymote\Cymote2\Cymote2\src\ASF\thirdparty\wireless\ble_smart_sdk\lib\cm0\gcc\libblusdk.a(gatt_server.o)
 .text.at_ble_read_authorize_reply
                0x00000000       0x28 C:\Senior-Design\Cymote\Cymote2\Cymote2\src\ASF\thirdparty\wireless\ble_smart_sdk\lib\cm0\gcc\libblusdk.a(gatt_server.o)
 .text.at_ble_indication_send
                0x00000000       0x74 C:\Senior-Design\Cymote\Cymote2\Cymote2\src\ASF\thirdparty\wireless\ble_smart_sdk\lib\cm0\gcc\libblusdk.a(gatt_server.o)
 .text.at_ble_notification_send
                0x00000000       0x74 C:\Senior-Design\Cymote\Cymote2\Cymote2\src\ASF\thirdparty\wireless\ble_smart_sdk\lib\cm0\gcc\libblusdk.a(gatt_server.o)
 .text.at_ble_send_service_changed_indication
                0x00000000       0x18 C:\Senior-Design\Cymote\Cymote2\Cymote2\src\ASF\thirdparty\wireless\ble_smart_sdk\lib\cm0\gcc\libblusdk.a(gatt_server.o)
 .rodata.primary_service_uuid
                0x00000000        0x2 C:\Senior-Design\Cymote\Cymote2\Cymote2\src\ASF\thirdparty\wireless\ble_smart_sdk\lib\cm0\gcc\libblusdk.a(gatt_server.o)
 .rodata.secondary_service_uuid
                0x00000000        0x2 C:\Senior-Design\Cymote\Cymote2\Cymote2\src\ASF\thirdparty\wireless\ble_smart_sdk\lib\cm0\gcc\libblusdk.a(gatt_server.o)
 .text          0x00000000        0x0 C:\Senior-Design\Cymote\Cymote2\Cymote2\src\ASF\thirdparty\wireless\ble_smart_sdk\lib\cm0\gcc\libblusdk.a(l2cc_task.o)
 .data          0x00000000        0x0 C:\Senior-Design\Cymote\Cymote2\Cymote2\src\ASF\thirdparty\wireless\ble_smart_sdk\lib\cm0\gcc\libblusdk.a(l2cc_task.o)
 .bss           0x00000000        0x0 C:\Senior-Design\Cymote\Cymote2\Cymote2\src\ASF\thirdparty\wireless\ble_smart_sdk\lib\cm0\gcc\libblusdk.a(l2cc_task.o)
 .text.l2cc_pdu_send_req_handler
                0x00000000       0x74 C:\Senior-Design\Cymote\Cymote2\Cymote2\src\ASF\thirdparty\wireless\ble_smart_sdk\lib\cm0\gcc\libblusdk.a(l2cc_task.o)
 .text          0x00000000        0x0 C:\Senior-Design\Cymote\Cymote2\Cymote2\src\ASF\thirdparty\wireless\ble_smart_sdk\lib\cm0\gcc\libblusdk.a(security.o)
 .data          0x00000000        0x0 C:\Senior-Design\Cymote\Cymote2\Cymote2\src\ASF\thirdparty\wireless\ble_smart_sdk\lib\cm0\gcc\libblusdk.a(security.o)
 .bss           0x00000000        0x0 C:\Senior-Design\Cymote\Cymote2\Cymote2\src\ASF\thirdparty\wireless\ble_smart_sdk\lib\cm0\gcc\libblusdk.a(security.o)
 .text.at_ble_send_slave_sec_request
                0x00000000       0x40 C:\Senior-Design\Cymote\Cymote2\Cymote2\src\ASF\thirdparty\wireless\ble_smart_sdk\lib\cm0\gcc\libblusdk.a(security.o)
 .text          0x00000000        0x0 C:\Senior-Design\Cymote\Cymote2\Cymote2\src\ASF\thirdparty\wireless\ble_smart_sdk\lib\cm0\gcc\libblusdk.a(interface.o)
 .data          0x00000000        0x0 C:\Senior-Design\Cymote\Cymote2\Cymote2\src\ASF\thirdparty\wireless\ble_smart_sdk\lib\cm0\gcc\libblusdk.a(interface.o)
 .bss           0x00000000        0x0 C:\Senior-Design\Cymote\Cymote2\Cymote2\src\ASF\thirdparty\wireless\ble_smart_sdk\lib\cm0\gcc\libblusdk.a(interface.o)
 .bss.event_flag
                0x00000000        0x4 C:\Senior-Design\Cymote\Cymote2\Cymote2\src\ASF\thirdparty\wireless\ble_smart_sdk\lib\cm0\gcc\libblusdk.a(interface.o)
 .text          0x00000000        0x0 C:\Senior-Design\Cymote\Cymote2\Cymote2\src\ASF\thirdparty\wireless\ble_smart_sdk\lib\cm0\gcc\libblusdk.a(calib_task.o)
 .data          0x00000000        0x0 C:\Senior-Design\Cymote\Cymote2\Cymote2\src\ASF\thirdparty\wireless\ble_smart_sdk\lib\cm0\gcc\libblusdk.a(calib_task.o)
 .bss           0x00000000        0x0 C:\Senior-Design\Cymote\Cymote2\Cymote2\src\ASF\thirdparty\wireless\ble_smart_sdk\lib\cm0\gcc\libblusdk.a(calib_task.o)
 .text.calib_config
                0x00000000       0x64 C:\Senior-Design\Cymote\Cymote2\Cymote2\src\ASF\thirdparty\wireless\ble_smart_sdk\lib\cm0\gcc\libblusdk.a(calib_task.o)
 .text.calib_get_temp
                0x00000000       0x7c C:\Senior-Design\Cymote\Cymote2\Cymote2\src\ASF\thirdparty\wireless\ble_smart_sdk\lib\cm0\gcc\libblusdk.a(calib_task.o)
 .text.calib_get_voltage
                0x00000000       0x94 C:\Senior-Design\Cymote\Cymote2\Cymote2\src\ASF\thirdparty\wireless\ble_smart_sdk\lib\cm0\gcc\libblusdk.a(calib_task.o)
 .comment       0x00000000       0x5c C:\Senior-Design\Cymote\Cymote2\Cymote2\src\ASF\thirdparty\wireless\ble_smart_sdk\lib\cm0\gcc\libblusdk.a(calib_task.o)
 .ARM.attributes
                0x00000000       0x31 C:\Senior-Design\Cymote\Cymote2\Cymote2\src\ASF\thirdparty\wireless\ble_smart_sdk\lib\cm0\gcc\libblusdk.a(calib_task.o)
 .text          0x00000000        0x0 C:\Senior-Design\Cymote\Cymote2\Cymote2\src\ASF\thirdparty\wireless\ble_smart_sdk\lib\cm0\gcc\libblusdk.a(dbg_task.o)
 .data          0x00000000        0x0 C:\Senior-Design\Cymote\Cymote2\Cymote2\src\ASF\thirdparty\wireless\ble_smart_sdk\lib\cm0\gcc\libblusdk.a(dbg_task.o)
 .bss           0x00000000        0x0 C:\Senior-Design\Cymote\Cymote2\Cymote2\src\ASF\thirdparty\wireless\ble_smart_sdk\lib\cm0\gcc\libblusdk.a(dbg_task.o)
 .text.dbg_wr_mem_req_handler
                0x00000000       0xb8 C:\Senior-Design\Cymote\Cymote2\Cymote2\src\ASF\thirdparty\wireless\ble_smart_sdk\lib\cm0\gcc\libblusdk.a(dbg_task.o)
 .text.dbg_rd_mem_req_handler
                0x00000000       0xa4 C:\Senior-Design\Cymote\Cymote2\Cymote2\src\ASF\thirdparty\wireless\ble_smart_sdk\lib\cm0\gcc\libblusdk.a(dbg_task.o)
 .text          0x00000000        0x0 C:\Senior-Design\Cymote\Cymote2\Cymote2\src\ASF\thirdparty\wireless\ble_smart_sdk\lib\cm0\gcc\libblusdk.a(gapc_task.o)
 .data          0x00000000        0x0 C:\Senior-Design\Cymote\Cymote2\Cymote2\src\ASF\thirdparty\wireless\ble_smart_sdk\lib\cm0\gcc\libblusdk.a(gapc_task.o)
 .bss           0x00000000        0x0 C:\Senior-Design\Cymote\Cymote2\Cymote2\src\ASF\thirdparty\wireless\ble_smart_sdk\lib\cm0\gcc\libblusdk.a(gapc_task.o)
 .text.gapc_security_cmd_handler
                0x00000000       0x40 C:\Senior-Design\Cymote\Cymote2\Cymote2\src\ASF\thirdparty\wireless\ble_smart_sdk\lib\cm0\gcc\libblusdk.a(gapc_task.o)
 .text.gapc_param_update_cmd_handler
                0x00000000       0x7c C:\Senior-Design\Cymote\Cymote2\Cymote2\src\ASF\thirdparty\wireless\ble_smart_sdk\lib\cm0\gcc\libblusdk.a(gapc_task.o)
 .text.gapc_get_info_cmd_handler
                0x00000000       0xe0 C:\Senior-Design\Cymote\Cymote2\Cymote2\src\ASF\thirdparty\wireless\ble_smart_sdk\lib\cm0\gcc\libblusdk.a(gapc_task.o)
 .text.gapc_lecb_create_handler
                0x00000000       0x94 C:\Senior-Design\Cymote\Cymote2\Cymote2\src\ASF\thirdparty\wireless\ble_smart_sdk\lib\cm0\gcc\libblusdk.a(gapc_task.o)
 .text.gapc_lecb_destroy_handler
                0x00000000       0x6c C:\Senior-Design\Cymote\Cymote2\Cymote2\src\ASF\thirdparty\wireless\ble_smart_sdk\lib\cm0\gcc\libblusdk.a(gapc_task.o)
 .text.gapc_lecb_connect_cmd_handler
                0x00000000       0x50 C:\Senior-Design\Cymote\Cymote2\Cymote2\src\ASF\thirdparty\wireless\ble_smart_sdk\lib\cm0\gcc\libblusdk.a(gapc_task.o)
 .text.gapc_lecb_connect_cfm_handler
                0x00000000       0x48 C:\Senior-Design\Cymote\Cymote2\Cymote2\src\ASF\thirdparty\wireless\ble_smart_sdk\lib\cm0\gcc\libblusdk.a(gapc_task.o)
 .text.gapc_lecb_disconnect_cmd_handler
                0x00000000       0x44 C:\Senior-Design\Cymote\Cymote2\Cymote2\src\ASF\thirdparty\wireless\ble_smart_sdk\lib\cm0\gcc\libblusdk.a(gapc_task.o)
 .text.gapc_lecb_add_cmd_handler
                0x00000000       0x74 C:\Senior-Design\Cymote\Cymote2\Cymote2\src\ASF\thirdparty\wireless\ble_smart_sdk\lib\cm0\gcc\libblusdk.a(gapc_task.o)
 .text          0x00000000        0x0 C:\Senior-Design\Cymote\Cymote2\Cymote2\src\ASF\thirdparty\wireless\ble_smart_sdk\lib\cm0\gcc\libblusdk.a(gapm_task.o)
 .data          0x00000000        0x0 C:\Senior-Design\Cymote\Cymote2\Cymote2\src\ASF\thirdparty\wireless\ble_smart_sdk\lib\cm0\gcc\libblusdk.a(gapm_task.o)
 .bss           0x00000000        0x0 C:\Senior-Design\Cymote\Cymote2\Cymote2\src\ASF\thirdparty\wireless\ble_smart_sdk\lib\cm0\gcc\libblusdk.a(gapm_task.o)
 .text.gapm_set_channel_map_cmd_handler
                0x00000000       0x88 C:\Senior-Design\Cymote\Cymote2\Cymote2\src\ASF\thirdparty\wireless\ble_smart_sdk\lib\cm0\gcc\libblusdk.a(gapm_task.o)
 .text.gapm_start_scan_cmd_handler
                0x00000000       0x98 C:\Senior-Design\Cymote\Cymote2\Cymote2\src\ASF\thirdparty\wireless\ble_smart_sdk\lib\cm0\gcc\libblusdk.a(gapm_task.o)
 .text.gapm_start_connection_cmd_handler
                0x00000000      0x11c C:\Senior-Design\Cymote\Cymote2\Cymote2\src\ASF\thirdparty\wireless\ble_smart_sdk\lib\cm0\gcc\libblusdk.a(gapm_task.o)
 .text.gapm_white_list_mgm_cmd
                0x00000000      0x108 C:\Senior-Design\Cymote\Cymote2\Cymote2\src\ASF\thirdparty\wireless\ble_smart_sdk\lib\cm0\gcc\libblusdk.a(gapm_task.o)
 .text.gapm_profile_task_add_cmd_handler
                0x00000000       0xe8 C:\Senior-Design\Cymote\Cymote2\Cymote2\src\ASF\thirdparty\wireless\ble_smart_sdk\lib\cm0\gcc\libblusdk.a(gapm_task.o)
 .text          0x00000000        0x0 C:\Senior-Design\Cymote\Cymote2\Cymote2\src\ASF\thirdparty\wireless\ble_smart_sdk\lib\cm0\gcc\libblusdk.a(gattc_task.o)
 .data          0x00000000        0x0 C:\Senior-Design\Cymote\Cymote2\Cymote2\src\ASF\thirdparty\wireless\ble_smart_sdk\lib\cm0\gcc\libblusdk.a(gattc_task.o)
 .bss           0x00000000        0x0 C:\Senior-Design\Cymote\Cymote2\Cymote2\src\ASF\thirdparty\wireless\ble_smart_sdk\lib\cm0\gcc\libblusdk.a(gattc_task.o)
 .text.gattc_send_evt_cmd_handler
                0x00000000       0x78 C:\Senior-Design\Cymote\Cymote2\Cymote2\src\ASF\thirdparty\wireless\ble_smart_sdk\lib\cm0\gcc\libblusdk.a(gattc_task.o)
 .text.gattc_disc_cmd_handler
                0x00000000       0x90 C:\Senior-Design\Cymote\Cymote2\Cymote2\src\ASF\thirdparty\wireless\ble_smart_sdk\lib\cm0\gcc\libblusdk.a(gattc_task.o)
 .text.gattc_reg_to_peer_handler
                0x00000000       0x4c C:\Senior-Design\Cymote\Cymote2\Cymote2\src\ASF\thirdparty\wireless\ble_smart_sdk\lib\cm0\gcc\libblusdk.a(gattc_task.o)
 .text.gattc_write_execute_cmd_handler
                0x00000000       0x54 C:\Senior-Design\Cymote\Cymote2\Cymote2\src\ASF\thirdparty\wireless\ble_smart_sdk\lib\cm0\gcc\libblusdk.a(gattc_task.o)
 .text.gattc_write_cmd_handler
                0x00000000       0x88 C:\Senior-Design\Cymote\Cymote2\Cymote2\src\ASF\thirdparty\wireless\ble_smart_sdk\lib\cm0\gcc\libblusdk.a(gattc_task.o)
 .text.gattc_read_cmd_handler_by_uuid
                0x00000000       0x6c C:\Senior-Design\Cymote\Cymote2\Cymote2\src\ASF\thirdparty\wireless\ble_smart_sdk\lib\cm0\gcc\libblusdk.a(gattc_task.o)
 .text.gattc_read_cmd_handler_simple_read
                0x00000000       0x50 C:\Senior-Design\Cymote\Cymote2\Cymote2\src\ASF\thirdparty\wireless\ble_smart_sdk\lib\cm0\gcc\libblusdk.a(gattc_task.o)
 .text.gattc_read_cmd_handler_multible
                0x00000000       0x68 C:\Senior-Design\Cymote\Cymote2\Cymote2\src\ASF\thirdparty\wireless\ble_smart_sdk\lib\cm0\gcc\libblusdk.a(gattc_task.o)
 .text.gattc_mtu_cmd_handler
                0x00000000       0x50 C:\Senior-Design\Cymote\Cymote2\Cymote2\src\ASF\thirdparty\wireless\ble_smart_sdk\lib\cm0\gcc\libblusdk.a(gattc_task.o)
 .text.gattc_read_cmd_handler
                0x00000000       0x98 C:\Senior-Design\Cymote\Cymote2\Cymote2\src\ASF\thirdparty\wireless\ble_smart_sdk\lib\cm0\gcc\libblusdk.a(gattc_task.o)
 .text.gattc_read_multiple_handler
                0x00000000       0x80 C:\Senior-Design\Cymote\Cymote2\Cymote2\src\ASF\thirdparty\wireless\ble_smart_sdk\lib\cm0\gcc\libblusdk.a(gattc_task.o)
 .text.gattc_svc_changed_ind_cmd_handler
                0x00000000       0x60 C:\Senior-Design\Cymote\Cymote2\Cymote2\src\ASF\thirdparty\wireless\ble_smart_sdk\lib\cm0\gcc\libblusdk.a(gattc_task.o)
 .text          0x00000000        0x0 C:\Senior-Design\Cymote\Cymote2\Cymote2\src\ASF\thirdparty\wireless\ble_smart_sdk\lib\cm0\gcc\libblusdk.a(gattm_task.o)
 .data          0x00000000        0x0 C:\Senior-Design\Cymote\Cymote2\Cymote2\src\ASF\thirdparty\wireless\ble_smart_sdk\lib\cm0\gcc\libblusdk.a(gattm_task.o)
 .bss           0x00000000        0x0 C:\Senior-Design\Cymote\Cymote2\Cymote2\src\ASF\thirdparty\wireless\ble_smart_sdk\lib\cm0\gcc\libblusdk.a(gattm_task.o)
 .text.init_gattm_task_module
                0x00000000        0xc C:\Senior-Design\Cymote\Cymote2\Cymote2\src\ASF\thirdparty\wireless\ble_smart_sdk\lib\cm0\gcc\libblusdk.a(gattm_task.o)
 .text          0x00000000        0x0 C:\Senior-Design\Cymote\Cymote2\Cymote2\src\ASF\thirdparty\wireless\ble_smart_sdk\lib\cm0\gcc\libblusdk.a(htpt_task.o)
 .data          0x00000000        0x0 C:\Senior-Design\Cymote\Cymote2\Cymote2\src\ASF\thirdparty\wireless\ble_smart_sdk\lib\cm0\gcc\libblusdk.a(htpt_task.o)
 .bss           0x00000000        0x0 C:\Senior-Design\Cymote\Cymote2\Cymote2\src\ASF\thirdparty\wireless\ble_smart_sdk\lib\cm0\gcc\libblusdk.a(htpt_task.o)
 .text.htpt_create_db_req_handler
                0x00000000       0x40 C:\Senior-Design\Cymote\Cymote2\Cymote2\src\ASF\thirdparty\wireless\ble_smart_sdk\lib\cm0\gcc\libblusdk.a(htpt_task.o)
 .text.htpt_enable_req_handler
                0x00000000       0x40 C:\Senior-Design\Cymote\Cymote2\Cymote2\src\ASF\thirdparty\wireless\ble_smart_sdk\lib\cm0\gcc\libblusdk.a(htpt_task.o)
 .text.htpt_temp_send_req_handler
                0x00000000       0x78 C:\Senior-Design\Cymote\Cymote2\Cymote2\src\ASF\thirdparty\wireless\ble_smart_sdk\lib\cm0\gcc\libblusdk.a(htpt_task.o)
 .text.htpt_meas_intv_upd_req_handler
                0x00000000       0x44 C:\Senior-Design\Cymote\Cymote2\Cymote2\src\ASF\thirdparty\wireless\ble_smart_sdk\lib\cm0\gcc\libblusdk.a(htpt_task.o)
 .text.htpt_meas_intv_chg_cfm_handler
                0x00000000       0x40 C:\Senior-Design\Cymote\Cymote2\Cymote2\src\ASF\thirdparty\wireless\ble_smart_sdk\lib\cm0\gcc\libblusdk.a(htpt_task.o)
 .data          0x00000000        0x0 c:/program files (x86)/atmel/studio/7.0/toolchain/arm/arm-gnu-toolchain/bin/../lib/gcc/arm-none-eabi/5.3.1/armv6-m\libgcc.a(_thumb1_case_sqi.o)
 .bss           0x00000000        0x0 c:/program files (x86)/atmel/studio/7.0/toolchain/arm/arm-gnu-toolchain/bin/../lib/gcc/arm-none-eabi/5.3.1/armv6-m\libgcc.a(_thumb1_case_sqi.o)
 .data          0x00000000        0x0 c:/program files (x86)/atmel/studio/7.0/toolchain/arm/arm-gnu-toolchain/bin/../lib/gcc/arm-none-eabi/5.3.1/armv6-m\libgcc.a(_thumb1_case_uqi.o)
 .bss           0x00000000        0x0 c:/program files (x86)/atmel/studio/7.0/toolchain/arm/arm-gnu-toolchain/bin/../lib/gcc/arm-none-eabi/5.3.1/armv6-m\libgcc.a(_thumb1_case_uqi.o)
 .data          0x00000000        0x0 c:/program files (x86)/atmel/studio/7.0/toolchain/arm/arm-gnu-toolchain/bin/../lib/gcc/arm-none-eabi/5.3.1/armv6-m\libgcc.a(_thumb1_case_uhi.o)
 .bss           0x00000000        0x0 c:/program files (x86)/atmel/studio/7.0/toolchain/arm/arm-gnu-toolchain/bin/../lib/gcc/arm-none-eabi/5.3.1/armv6-m\libgcc.a(_thumb1_case_uhi.o)
 .data          0x00000000        0x0 c:/program files (x86)/atmel/studio/7.0/toolchain/arm/arm-gnu-toolchain/bin/../lib/gcc/arm-none-eabi/5.3.1/armv6-m\libgcc.a(_udivsi3.o)
 .bss           0x00000000        0x0 c:/program files (x86)/atmel/studio/7.0/toolchain/arm/arm-gnu-toolchain/bin/../lib/gcc/arm-none-eabi/5.3.1/armv6-m\libgcc.a(_udivsi3.o)
 .text          0x00000000      0x1d4 c:/program files (x86)/atmel/studio/7.0/toolchain/arm/arm-gnu-toolchain/bin/../lib/gcc/arm-none-eabi/5.3.1/armv6-m\libgcc.a(_divsi3.o)
 .data          0x00000000        0x0 c:/program files (x86)/atmel/studio/7.0/toolchain/arm/arm-gnu-toolchain/bin/../lib/gcc/arm-none-eabi/5.3.1/armv6-m\libgcc.a(_divsi3.o)
 .bss           0x00000000        0x0 c:/program files (x86)/atmel/studio/7.0/toolchain/arm/arm-gnu-toolchain/bin/../lib/gcc/arm-none-eabi/5.3.1/armv6-m\libgcc.a(_divsi3.o)
 .debug_frame   0x00000000       0x20 c:/program files (x86)/atmel/studio/7.0/toolchain/arm/arm-gnu-toolchain/bin/../lib/gcc/arm-none-eabi/5.3.1/armv6-m\libgcc.a(_divsi3.o)
 .ARM.attributes
                0x00000000       0x1e c:/program files (x86)/atmel/studio/7.0/toolchain/arm/arm-gnu-toolchain/bin/../lib/gcc/arm-none-eabi/5.3.1/armv6-m\libgcc.a(_divsi3.o)
 .data          0x00000000        0x0 c:/program files (x86)/atmel/studio/7.0/toolchain/arm/arm-gnu-toolchain/bin/../lib/gcc/arm-none-eabi/5.3.1/armv6-m\libgcc.a(_dvmd_tls.o)
 .bss           0x00000000        0x0 c:/program files (x86)/atmel/studio/7.0/toolchain/arm/arm-gnu-toolchain/bin/../lib/gcc/arm-none-eabi/5.3.1/armv6-m\libgcc.a(_dvmd_tls.o)
 .data          0x00000000        0x0 c:/program files (x86)/atmel/studio/7.0/toolchain/arm/arm-gnu-toolchain/bin/../lib/gcc/arm-none-eabi/5.3.1/armv6-m\libgcc.a(_fixunsdfsi.o)
 .bss           0x00000000        0x0 c:/program files (x86)/atmel/studio/7.0/toolchain/arm/arm-gnu-toolchain/bin/../lib/gcc/arm-none-eabi/5.3.1/armv6-m\libgcc.a(_fixunsdfsi.o)
 .text          0x00000000      0x228 c:/program files (x86)/atmel/studio/7.0/toolchain/arm/arm-gnu-toolchain/bin/../lib/gcc/arm-none-eabi/5.3.1/armv6-m\libgcc.a(mulsf3.o)
 .data          0x00000000        0x0 c:/program files (x86)/atmel/studio/7.0/toolchain/arm/arm-gnu-toolchain/bin/../lib/gcc/arm-none-eabi/5.3.1/armv6-m\libgcc.a(mulsf3.o)
 .bss           0x00000000        0x0 c:/program files (x86)/atmel/studio/7.0/toolchain/arm/arm-gnu-toolchain/bin/../lib/gcc/arm-none-eabi/5.3.1/armv6-m\libgcc.a(mulsf3.o)
 .rodata        0x00000000       0x40 c:/program files (x86)/atmel/studio/7.0/toolchain/arm/arm-gnu-toolchain/bin/../lib/gcc/arm-none-eabi/5.3.1/armv6-m\libgcc.a(mulsf3.o)
 .debug_frame   0x00000000       0x38 c:/program files (x86)/atmel/studio/7.0/toolchain/arm/arm-gnu-toolchain/bin/../lib/gcc/arm-none-eabi/5.3.1/armv6-m\libgcc.a(mulsf3.o)
 .ARM.attributes
                0x00000000       0x2c c:/program files (x86)/atmel/studio/7.0/toolchain/arm/arm-gnu-toolchain/bin/../lib/gcc/arm-none-eabi/5.3.1/armv6-m\libgcc.a(mulsf3.o)
 .text          0x00000000       0x7c c:/program files (x86)/atmel/studio/7.0/toolchain/arm/arm-gnu-toolchain/bin/../lib/gcc/arm-none-eabi/5.3.1/armv6-m\libgcc.a(floatunsisf.o)
 .data          0x00000000        0x0 c:/program files (x86)/atmel/studio/7.0/toolchain/arm/arm-gnu-toolchain/bin/../lib/gcc/arm-none-eabi/5.3.1/armv6-m\libgcc.a(floatunsisf.o)
 .bss           0x00000000        0x0 c:/program files (x86)/atmel/studio/7.0/toolchain/arm/arm-gnu-toolchain/bin/../lib/gcc/arm-none-eabi/5.3.1/armv6-m\libgcc.a(floatunsisf.o)
 .debug_frame   0x00000000       0x2c c:/program files (x86)/atmel/studio/7.0/toolchain/arm/arm-gnu-toolchain/bin/../lib/gcc/arm-none-eabi/5.3.1/armv6-m\libgcc.a(floatunsisf.o)
 .ARM.attributes
                0x00000000       0x2c c:/program files (x86)/atmel/studio/7.0/toolchain/arm/arm-gnu-toolchain/bin/../lib/gcc/arm-none-eabi/5.3.1/armv6-m\libgcc.a(floatunsisf.o)
 .data          0x00000000        0x0 c:/program files (x86)/atmel/studio/7.0/toolchain/arm/arm-gnu-toolchain/bin/../lib/gcc/arm-none-eabi/5.3.1/armv6-m\libgcc.a(muldf3.o)
 .bss           0x00000000        0x0 c:/program files (x86)/atmel/studio/7.0/toolchain/arm/arm-gnu-toolchain/bin/../lib/gcc/arm-none-eabi/5.3.1/armv6-m\libgcc.a(muldf3.o)
 .data          0x00000000        0x0 c:/program files (x86)/atmel/studio/7.0/toolchain/arm/arm-gnu-toolchain/bin/../lib/gcc/arm-none-eabi/5.3.1/armv6-m\libgcc.a(subdf3.o)
 .bss           0x00000000        0x0 c:/program files (x86)/atmel/studio/7.0/toolchain/arm/arm-gnu-toolchain/bin/../lib/gcc/arm-none-eabi/5.3.1/armv6-m\libgcc.a(subdf3.o)
 .data          0x00000000        0x0 c:/program files (x86)/atmel/studio/7.0/toolchain/arm/arm-gnu-toolchain/bin/../lib/gcc/arm-none-eabi/5.3.1/armv6-m\libgcc.a(fixdfsi.o)
 .bss           0x00000000        0x0 c:/program files (x86)/atmel/studio/7.0/toolchain/arm/arm-gnu-toolchain/bin/../lib/gcc/arm-none-eabi/5.3.1/armv6-m\libgcc.a(fixdfsi.o)
 .data          0x00000000        0x0 c:/program files (x86)/atmel/studio/7.0/toolchain/arm/arm-gnu-toolchain/bin/../lib/gcc/arm-none-eabi/5.3.1/armv6-m\libgcc.a(floatunsidf.o)
 .bss           0x00000000        0x0 c:/program files (x86)/atmel/studio/7.0/toolchain/arm/arm-gnu-toolchain/bin/../lib/gcc/arm-none-eabi/5.3.1/armv6-m\libgcc.a(floatunsidf.o)
 .data          0x00000000        0x0 c:/program files (x86)/atmel/studio/7.0/toolchain/arm/arm-gnu-toolchain/bin/../lib/gcc/arm-none-eabi/5.3.1/armv6-m\libgcc.a(_arm_cmpdf2.o)
 .bss           0x00000000        0x0 c:/program files (x86)/atmel/studio/7.0/toolchain/arm/arm-gnu-toolchain/bin/../lib/gcc/arm-none-eabi/5.3.1/armv6-m\libgcc.a(_arm_cmpdf2.o)
 .data          0x00000000        0x0 c:/program files (x86)/atmel/studio/7.0/toolchain/arm/arm-gnu-toolchain/bin/../lib/gcc/arm-none-eabi/5.3.1/armv6-m\libgcc.a(_clzsi2.o)
 .bss           0x00000000        0x0 c:/program files (x86)/atmel/studio/7.0/toolchain/arm/arm-gnu-toolchain/bin/../lib/gcc/arm-none-eabi/5.3.1/armv6-m\libgcc.a(_clzsi2.o)
 .data          0x00000000        0x0 c:/program files (x86)/atmel/studio/7.0/toolchain/arm/arm-gnu-toolchain/bin/../lib/gcc/arm-none-eabi/5.3.1/armv6-m\libgcc.a(eqdf2.o)
 .bss           0x00000000        0x0 c:/program files (x86)/atmel/studio/7.0/toolchain/arm/arm-gnu-toolchain/bin/../lib/gcc/arm-none-eabi/5.3.1/armv6-m\libgcc.a(eqdf2.o)
 .data          0x00000000        0x0 c:/program files (x86)/atmel/studio/7.0/toolchain/arm/arm-gnu-toolchain/bin/../lib/gcc/arm-none-eabi/5.3.1/armv6-m\libgcc.a(gedf2.o)
 .bss           0x00000000        0x0 c:/program files (x86)/atmel/studio/7.0/toolchain/arm/arm-gnu-toolchain/bin/../lib/gcc/arm-none-eabi/5.3.1/armv6-m\libgcc.a(gedf2.o)
 .data          0x00000000        0x0 c:/program files (x86)/atmel/studio/7.0/toolchain/arm/arm-gnu-toolchain/bin/../lib/gcc/arm-none-eabi/5.3.1/armv6-m\libgcc.a(ledf2.o)
 .bss           0x00000000        0x0 c:/program files (x86)/atmel/studio/7.0/toolchain/arm/arm-gnu-toolchain/bin/../lib/gcc/arm-none-eabi/5.3.1/armv6-m\libgcc.a(ledf2.o)
 .text          0x00000000        0x0 c:/program files (x86)/atmel/studio/7.0/toolchain/arm/arm-gnu-toolchain/bin/../lib/gcc/arm-none-eabi/5.3.1/../../../../arm-none-eabi/lib/armv6-m\libc_nano.a(lib_a-exit.o)
 .data          0x00000000        0x0 c:/program files (x86)/atmel/studio/7.0/toolchain/arm/arm-gnu-toolchain/bin/../lib/gcc/arm-none-eabi/5.3.1/../../../../arm-none-eabi/lib/armv6-m\libc_nano.a(lib_a-exit.o)
 .bss           0x00000000        0x0 c:/program files (x86)/atmel/studio/7.0/toolchain/arm/arm-gnu-toolchain/bin/../lib/gcc/arm-none-eabi/5.3.1/../../../../arm-none-eabi/lib/armv6-m\libc_nano.a(lib_a-exit.o)
 .text.exit     0x00000000       0x2c c:/program files (x86)/atmel/studio/7.0/toolchain/arm/arm-gnu-toolchain/bin/../lib/gcc/arm-none-eabi/5.3.1/../../../../arm-none-eabi/lib/armv6-m\libc_nano.a(lib_a-exit.o)
 .debug_frame   0x00000000       0x28 c:/program files (x86)/atmel/studio/7.0/toolchain/arm/arm-gnu-toolchain/bin/../lib/gcc/arm-none-eabi/5.3.1/../../../../arm-none-eabi/lib/armv6-m\libc_nano.a(lib_a-exit.o)
 .ARM.attributes
                0x00000000       0x2c c:/program files (x86)/atmel/studio/7.0/toolchain/arm/arm-gnu-toolchain/bin/../lib/gcc/arm-none-eabi/5.3.1/../../../../arm-none-eabi/lib/armv6-m\libc_nano.a(lib_a-exit.o)
 .text          0x00000000        0x0 c:/program files (x86)/atmel/studio/7.0/toolchain/arm/arm-gnu-toolchain/bin/../lib/gcc/arm-none-eabi/5.3.1/../../../../arm-none-eabi/lib/armv6-m\libc_nano.a(lib_a-fflush.o)
 .data          0x00000000        0x0 c:/program files (x86)/atmel/studio/7.0/toolchain/arm/arm-gnu-toolchain/bin/../lib/gcc/arm-none-eabi/5.3.1/../../../../arm-none-eabi/lib/armv6-m\libc_nano.a(lib_a-fflush.o)
 .bss           0x00000000        0x0 c:/program files (x86)/atmel/studio/7.0/toolchain/arm/arm-gnu-toolchain/bin/../lib/gcc/arm-none-eabi/5.3.1/../../../../arm-none-eabi/lib/armv6-m\libc_nano.a(lib_a-fflush.o)
 .text          0x00000000        0x0 c:/program files (x86)/atmel/studio/7.0/toolchain/arm/arm-gnu-toolchain/bin/../lib/gcc/arm-none-eabi/5.3.1/../../../../arm-none-eabi/lib/armv6-m\libc_nano.a(lib_a-findfp.o)
 .data          0x00000000        0x0 c:/program files (x86)/atmel/studio/7.0/toolchain/arm/arm-gnu-toolchain/bin/../lib/gcc/arm-none-eabi/5.3.1/../../../../arm-none-eabi/lib/armv6-m\libc_nano.a(lib_a-findfp.o)
 .bss           0x00000000        0x0 c:/program files (x86)/atmel/studio/7.0/toolchain/arm/arm-gnu-toolchain/bin/../lib/gcc/arm-none-eabi/5.3.1/../../../../arm-none-eabi/lib/armv6-m\libc_nano.a(lib_a-findfp.o)
 .text.__fp_unlock
                0x00000000        0x4 c:/program files (x86)/atmel/studio/7.0/toolchain/arm/arm-gnu-toolchain/bin/../lib/gcc/arm-none-eabi/5.3.1/../../../../arm-none-eabi/lib/armv6-m\libc_nano.a(lib_a-findfp.o)
 .text.__fp_lock
                0x00000000        0x4 c:/program files (x86)/atmel/studio/7.0/toolchain/arm/arm-gnu-toolchain/bin/../lib/gcc/arm-none-eabi/5.3.1/../../../../arm-none-eabi/lib/armv6-m\libc_nano.a(lib_a-findfp.o)
 .text._cleanup
                0x00000000       0x10 c:/program files (x86)/atmel/studio/7.0/toolchain/arm/arm-gnu-toolchain/bin/../lib/gcc/arm-none-eabi/5.3.1/../../../../arm-none-eabi/lib/armv6-m\libc_nano.a(lib_a-findfp.o)
 .text.__sfp_lock_acquire
                0x00000000        0x2 c:/program files (x86)/atmel/studio/7.0/toolchain/arm/arm-gnu-toolchain/bin/../lib/gcc/arm-none-eabi/5.3.1/../../../../arm-none-eabi/lib/armv6-m\libc_nano.a(lib_a-findfp.o)
 .text.__sfp_lock_release
                0x00000000        0x2 c:/program files (x86)/atmel/studio/7.0/toolchain/arm/arm-gnu-toolchain/bin/../lib/gcc/arm-none-eabi/5.3.1/../../../../arm-none-eabi/lib/armv6-m\libc_nano.a(lib_a-findfp.o)
 .text.__sinit_lock_acquire
                0x00000000        0x2 c:/program files (x86)/atmel/studio/7.0/toolchain/arm/arm-gnu-toolchain/bin/../lib/gcc/arm-none-eabi/5.3.1/../../../../arm-none-eabi/lib/armv6-m\libc_nano.a(lib_a-findfp.o)
 .text.__sinit_lock_release
                0x00000000        0x2 c:/program files (x86)/atmel/studio/7.0/toolchain/arm/arm-gnu-toolchain/bin/../lib/gcc/arm-none-eabi/5.3.1/../../../../arm-none-eabi/lib/armv6-m\libc_nano.a(lib_a-findfp.o)
 .text.__fp_lock_all
                0x00000000       0x18 c:/program files (x86)/atmel/studio/7.0/toolchain/arm/arm-gnu-toolchain/bin/../lib/gcc/arm-none-eabi/5.3.1/../../../../arm-none-eabi/lib/armv6-m\libc_nano.a(lib_a-findfp.o)
 .text.__fp_unlock_all
                0x00000000       0x18 c:/program files (x86)/atmel/studio/7.0/toolchain/arm/arm-gnu-toolchain/bin/../lib/gcc/arm-none-eabi/5.3.1/../../../../arm-none-eabi/lib/armv6-m\libc_nano.a(lib_a-findfp.o)
 .text          0x00000000        0x0 c:/program files (x86)/atmel/studio/7.0/toolchain/arm/arm-gnu-toolchain/bin/../lib/gcc/arm-none-eabi/5.3.1/../../../../arm-none-eabi/lib/armv6-m\libc_nano.a(lib_a-fwalk.o)
 .data          0x00000000        0x0 c:/program files (x86)/atmel/studio/7.0/toolchain/arm/arm-gnu-toolchain/bin/../lib/gcc/arm-none-eabi/5.3.1/../../../../arm-none-eabi/lib/armv6-m\libc_nano.a(lib_a-fwalk.o)
 .bss           0x00000000        0x0 c:/program files (x86)/atmel/studio/7.0/toolchain/arm/arm-gnu-toolchain/bin/../lib/gcc/arm-none-eabi/5.3.1/../../../../arm-none-eabi/lib/armv6-m\libc_nano.a(lib_a-fwalk.o)
 .text._fwalk   0x00000000       0x38 c:/program files (x86)/atmel/studio/7.0/toolchain/arm/arm-gnu-toolchain/bin/../lib/gcc/arm-none-eabi/5.3.1/../../../../arm-none-eabi/lib/armv6-m\libc_nano.a(lib_a-fwalk.o)
 .text          0x00000000        0x0 c:/program files (x86)/atmel/studio/7.0/toolchain/arm/arm-gnu-toolchain/bin/../lib/gcc/arm-none-eabi/5.3.1/../../../../arm-none-eabi/lib/armv6-m\libc_nano.a(lib_a-impure.o)
 .data          0x00000000        0x0 c:/program files (x86)/atmel/studio/7.0/toolchain/arm/arm-gnu-toolchain/bin/../lib/gcc/arm-none-eabi/5.3.1/../../../../arm-none-eabi/lib/armv6-m\libc_nano.a(lib_a-impure.o)
 .bss           0x00000000        0x0 c:/program files (x86)/atmel/studio/7.0/toolchain/arm/arm-gnu-toolchain/bin/../lib/gcc/arm-none-eabi/5.3.1/../../../../arm-none-eabi/lib/armv6-m\libc_nano.a(lib_a-impure.o)
 .text          0x00000000        0x0 c:/program files (x86)/atmel/studio/7.0/toolchain/arm/arm-gnu-toolchain/bin/../lib/gcc/arm-none-eabi/5.3.1/../../../../arm-none-eabi/lib/armv6-m\libc_nano.a(lib_a-init.o)
 .data          0x00000000        0x0 c:/program files (x86)/atmel/studio/7.0/toolchain/arm/arm-gnu-toolchain/bin/../lib/gcc/arm-none-eabi/5.3.1/../../../../arm-none-eabi/lib/armv6-m\libc_nano.a(lib_a-init.o)
 .bss           0x00000000        0x0 c:/program files (x86)/atmel/studio/7.0/toolchain/arm/arm-gnu-toolchain/bin/../lib/gcc/arm-none-eabi/5.3.1/../../../../arm-none-eabi/lib/armv6-m\libc_nano.a(lib_a-init.o)
 .text          0x00000000        0x0 c:/program files (x86)/atmel/studio/7.0/toolchain/arm/arm-gnu-toolchain/bin/../lib/gcc/arm-none-eabi/5.3.1/../../../../arm-none-eabi/lib/armv6-m\libc_nano.a(lib_a-memcmp.o)
 .data          0x00000000        0x0 c:/program files (x86)/atmel/studio/7.0/toolchain/arm/arm-gnu-toolchain/bin/../lib/gcc/arm-none-eabi/5.3.1/../../../../arm-none-eabi/lib/armv6-m\libc_nano.a(lib_a-memcmp.o)
 .bss           0x00000000        0x0 c:/program files (x86)/atmel/studio/7.0/toolchain/arm/arm-gnu-toolchain/bin/../lib/gcc/arm-none-eabi/5.3.1/../../../../arm-none-eabi/lib/armv6-m\libc_nano.a(lib_a-memcmp.o)
 .text          0x00000000        0x0 c:/program files (x86)/atmel/studio/7.0/toolchain/arm/arm-gnu-toolchain/bin/../lib/gcc/arm-none-eabi/5.3.1/../../../../arm-none-eabi/lib/armv6-m\libc_nano.a(lib_a-memcpy-stub.o)
 .data          0x00000000        0x0 c:/program files (x86)/atmel/studio/7.0/toolchain/arm/arm-gnu-toolchain/bin/../lib/gcc/arm-none-eabi/5.3.1/../../../../arm-none-eabi/lib/armv6-m\libc_nano.a(lib_a-memcpy-stub.o)
 .bss           0x00000000        0x0 c:/program files (x86)/atmel/studio/7.0/toolchain/arm/arm-gnu-toolchain/bin/../lib/gcc/arm-none-eabi/5.3.1/../../../../arm-none-eabi/lib/armv6-m\libc_nano.a(lib_a-memcpy-stub.o)
 .text          0x00000000        0x0 c:/program files (x86)/atmel/studio/7.0/toolchain/arm/arm-gnu-toolchain/bin/../lib/gcc/arm-none-eabi/5.3.1/../../../../arm-none-eabi/lib/armv6-m\libc_nano.a(lib_a-memset.o)
 .data          0x00000000        0x0 c:/program files (x86)/atmel/studio/7.0/toolchain/arm/arm-gnu-toolchain/bin/../lib/gcc/arm-none-eabi/5.3.1/../../../../arm-none-eabi/lib/armv6-m\libc_nano.a(lib_a-memset.o)
 .bss           0x00000000        0x0 c:/program files (x86)/atmel/studio/7.0/toolchain/arm/arm-gnu-toolchain/bin/../lib/gcc/arm-none-eabi/5.3.1/../../../../arm-none-eabi/lib/armv6-m\libc_nano.a(lib_a-memset.o)
 .text          0x00000000        0x0 c:/program files (x86)/atmel/studio/7.0/toolchain/arm/arm-gnu-toolchain/bin/../lib/gcc/arm-none-eabi/5.3.1/../../../../arm-none-eabi/lib/armv6-m\libc_nano.a(lib_a-nano-freer.o)
 .data          0x00000000        0x0 c:/program files (x86)/atmel/studio/7.0/toolchain/arm/arm-gnu-toolchain/bin/../lib/gcc/arm-none-eabi/5.3.1/../../../../arm-none-eabi/lib/armv6-m\libc_nano.a(lib_a-nano-freer.o)
 .bss           0x00000000        0x0 c:/program files (x86)/atmel/studio/7.0/toolchain/arm/arm-gnu-toolchain/bin/../lib/gcc/arm-none-eabi/5.3.1/../../../../arm-none-eabi/lib/armv6-m\libc_nano.a(lib_a-nano-freer.o)
 .text          0x00000000        0x0 c:/program files (x86)/atmel/studio/7.0/toolchain/arm/arm-gnu-toolchain/bin/../lib/gcc/arm-none-eabi/5.3.1/../../../../arm-none-eabi/lib/armv6-m\libc_nano.a(lib_a-nano-mallocr.o)
 .data          0x00000000        0x0 c:/program files (x86)/atmel/studio/7.0/toolchain/arm/arm-gnu-toolchain/bin/../lib/gcc/arm-none-eabi/5.3.1/../../../../arm-none-eabi/lib/armv6-m\libc_nano.a(lib_a-nano-mallocr.o)
 .bss           0x00000000        0x0 c:/program files (x86)/atmel/studio/7.0/toolchain/arm/arm-gnu-toolchain/bin/../lib/gcc/arm-none-eabi/5.3.1/../../../../arm-none-eabi/lib/armv6-m\libc_nano.a(lib_a-nano-mallocr.o)
 .text          0x00000000        0x0 c:/program files (x86)/atmel/studio/7.0/toolchain/arm/arm-gnu-toolchain/bin/../lib/gcc/arm-none-eabi/5.3.1/../../../../arm-none-eabi/lib/armv6-m\libc_nano.a(lib_a-printf.o)
 .data          0x00000000        0x0 c:/program files (x86)/atmel/studio/7.0/toolchain/arm/arm-gnu-toolchain/bin/../lib/gcc/arm-none-eabi/5.3.1/../../../../arm-none-eabi/lib/armv6-m\libc_nano.a(lib_a-printf.o)
 .bss           0x00000000        0x0 c:/program files (x86)/atmel/studio/7.0/toolchain/arm/arm-gnu-toolchain/bin/../lib/gcc/arm-none-eabi/5.3.1/../../../../arm-none-eabi/lib/armv6-m\libc_nano.a(lib_a-printf.o)
 .text._printf_r
                0x00000000       0x28 c:/program files (x86)/atmel/studio/7.0/toolchain/arm/arm-gnu-toolchain/bin/../lib/gcc/arm-none-eabi/5.3.1/../../../../arm-none-eabi/lib/armv6-m\libc_nano.a(lib_a-printf.o)
 .text          0x00000000        0x0 c:/program files (x86)/atmel/studio/7.0/toolchain/arm/arm-gnu-toolchain/bin/../lib/gcc/arm-none-eabi/5.3.1/../../../../arm-none-eabi/lib/armv6-m\libc_nano.a(lib_a-putchar.o)
 .data          0x00000000        0x0 c:/program files (x86)/atmel/studio/7.0/toolchain/arm/arm-gnu-toolchain/bin/../lib/gcc/arm-none-eabi/5.3.1/../../../../arm-none-eabi/lib/armv6-m\libc_nano.a(lib_a-putchar.o)
 .bss           0x00000000        0x0 c:/program files (x86)/atmel/studio/7.0/toolchain/arm/arm-gnu-toolchain/bin/../lib/gcc/arm-none-eabi/5.3.1/../../../../arm-none-eabi/lib/armv6-m\libc_nano.a(lib_a-putchar.o)
 .text._putchar_r
                0x00000000       0x20 c:/program files (x86)/atmel/studio/7.0/toolchain/arm/arm-gnu-toolchain/bin/../lib/gcc/arm-none-eabi/5.3.1/../../../../arm-none-eabi/lib/armv6-m\libc_nano.a(lib_a-putchar.o)
 .text          0x00000000        0x0 c:/program files (x86)/atmel/studio/7.0/toolchain/arm/arm-gnu-toolchain/bin/../lib/gcc/arm-none-eabi/5.3.1/../../../../arm-none-eabi/lib/armv6-m\libc_nano.a(lib_a-puts.o)
 .data          0x00000000        0x0 c:/program files (x86)/atmel/studio/7.0/toolchain/arm/arm-gnu-toolchain/bin/../lib/gcc/arm-none-eabi/5.3.1/../../../../arm-none-eabi/lib/armv6-m\libc_nano.a(lib_a-puts.o)
 .bss           0x00000000        0x0 c:/program files (x86)/atmel/studio/7.0/toolchain/arm/arm-gnu-toolchain/bin/../lib/gcc/arm-none-eabi/5.3.1/../../../../arm-none-eabi/lib/armv6-m\libc_nano.a(lib_a-puts.o)
 .text          0x00000000        0x0 c:/program files (x86)/atmel/studio/7.0/toolchain/arm/arm-gnu-toolchain/bin/../lib/gcc/arm-none-eabi/5.3.1/../../../../arm-none-eabi/lib/armv6-m\libc_nano.a(lib_a-rand.o)
 .data          0x00000000        0x0 c:/program files (x86)/atmel/studio/7.0/toolchain/arm/arm-gnu-toolchain/bin/../lib/gcc/arm-none-eabi/5.3.1/../../../../arm-none-eabi/lib/armv6-m\libc_nano.a(lib_a-rand.o)
 .bss           0x00000000        0x0 c:/program files (x86)/atmel/studio/7.0/toolchain/arm/arm-gnu-toolchain/bin/../lib/gcc/arm-none-eabi/5.3.1/../../../../arm-none-eabi/lib/armv6-m\libc_nano.a(lib_a-rand.o)
 .text.srand    0x00000000       0x5c c:/program files (x86)/atmel/studio/7.0/toolchain/arm/arm-gnu-toolchain/bin/../lib/gcc/arm-none-eabi/5.3.1/../../../../arm-none-eabi/lib/armv6-m\libc_nano.a(lib_a-rand.o)
 .text          0x00000000        0x0 c:/program files (x86)/atmel/studio/7.0/toolchain/arm/arm-gnu-toolchain/bin/../lib/gcc/arm-none-eabi/5.3.1/../../../../arm-none-eabi/lib/armv6-m\libc_nano.a(lib_a-sbrkr.o)
 .data          0x00000000        0x0 c:/program files (x86)/atmel/studio/7.0/toolchain/arm/arm-gnu-toolchain/bin/../lib/gcc/arm-none-eabi/5.3.1/../../../../arm-none-eabi/lib/armv6-m\libc_nano.a(lib_a-sbrkr.o)
 .bss           0x00000000        0x0 c:/program files (x86)/atmel/studio/7.0/toolchain/arm/arm-gnu-toolchain/bin/../lib/gcc/arm-none-eabi/5.3.1/../../../../arm-none-eabi/lib/armv6-m\libc_nano.a(lib_a-sbrkr.o)
 .text          0x00000000        0x0 c:/program files (x86)/atmel/studio/7.0/toolchain/arm/arm-gnu-toolchain/bin/../lib/gcc/arm-none-eabi/5.3.1/../../../../arm-none-eabi/lib/armv6-m\libc_nano.a(lib_a-setbuf.o)
 .data          0x00000000        0x0 c:/program files (x86)/atmel/studio/7.0/toolchain/arm/arm-gnu-toolchain/bin/../lib/gcc/arm-none-eabi/5.3.1/../../../../arm-none-eabi/lib/armv6-m\libc_nano.a(lib_a-setbuf.o)
 .bss           0x00000000        0x0 c:/program files (x86)/atmel/studio/7.0/toolchain/arm/arm-gnu-toolchain/bin/../lib/gcc/arm-none-eabi/5.3.1/../../../../arm-none-eabi/lib/armv6-m\libc_nano.a(lib_a-setbuf.o)
 .text          0x00000000        0x0 c:/program files (x86)/atmel/studio/7.0/toolchain/arm/arm-gnu-toolchain/bin/../lib/gcc/arm-none-eabi/5.3.1/../../../../arm-none-eabi/lib/armv6-m\libc_nano.a(lib_a-setvbuf.o)
 .data          0x00000000        0x0 c:/program files (x86)/atmel/studio/7.0/toolchain/arm/arm-gnu-toolchain/bin/../lib/gcc/arm-none-eabi/5.3.1/../../../../arm-none-eabi/lib/armv6-m\libc_nano.a(lib_a-setvbuf.o)
 .bss           0x00000000        0x0 c:/program files (x86)/atmel/studio/7.0/toolchain/arm/arm-gnu-toolchain/bin/../lib/gcc/arm-none-eabi/5.3.1/../../../../arm-none-eabi/lib/armv6-m\libc_nano.a(lib_a-setvbuf.o)
 .text          0x00000000        0x0 c:/program files (x86)/atmel/studio/7.0/toolchain/arm/arm-gnu-toolchain/bin/../lib/gcc/arm-none-eabi/5.3.1/../../../../arm-none-eabi/lib/armv6-m\libc_nano.a(lib_a-snprintf.o)
 .data          0x00000000        0x0 c:/program files (x86)/atmel/studio/7.0/toolchain/arm/arm-gnu-toolchain/bin/../lib/gcc/arm-none-eabi/5.3.1/../../../../arm-none-eabi/lib/armv6-m\libc_nano.a(lib_a-snprintf.o)
 .bss           0x00000000        0x0 c:/program files (x86)/atmel/studio/7.0/toolchain/arm/arm-gnu-toolchain/bin/../lib/gcc/arm-none-eabi/5.3.1/../../../../arm-none-eabi/lib/armv6-m\libc_nano.a(lib_a-snprintf.o)
 .text._snprintf_r
                0x00000000       0x5e c:/program files (x86)/atmel/studio/7.0/toolchain/arm/arm-gnu-toolchain/bin/../lib/gcc/arm-none-eabi/5.3.1/../../../../arm-none-eabi/lib/armv6-m\libc_nano.a(lib_a-snprintf.o)
 .text          0x00000000        0x0 c:/program files (x86)/atmel/studio/7.0/toolchain/arm/arm-gnu-toolchain/bin/../lib/gcc/arm-none-eabi/5.3.1/../../../../arm-none-eabi/lib/armv6-m\libc_nano.a(lib_a-stdio.o)
 .data          0x00000000        0x0 c:/program files (x86)/atmel/studio/7.0/toolchain/arm/arm-gnu-toolchain/bin/../lib/gcc/arm-none-eabi/5.3.1/../../../../arm-none-eabi/lib/armv6-m\libc_nano.a(lib_a-stdio.o)
 .bss           0x00000000        0x0 c:/program files (x86)/atmel/studio/7.0/toolchain/arm/arm-gnu-toolchain/bin/../lib/gcc/arm-none-eabi/5.3.1/../../../../arm-none-eabi/lib/armv6-m\libc_nano.a(lib_a-stdio.o)
 .text.__seofread
                0x00000000        0x4 c:/program files (x86)/atmel/studio/7.0/toolchain/arm/arm-gnu-toolchain/bin/../lib/gcc/arm-none-eabi/5.3.1/../../../../arm-none-eabi/lib/armv6-m\libc_nano.a(lib_a-stdio.o)
 .data          0x00000000        0x0 c:/program files (x86)/atmel/studio/7.0/toolchain/arm/arm-gnu-toolchain/bin/../lib/gcc/arm-none-eabi/5.3.1/../../../../arm-none-eabi/lib/armv6-m\libc_nano.a(lib_a-strlen.o)
 .bss           0x00000000        0x0 c:/program files (x86)/atmel/studio/7.0/toolchain/arm/arm-gnu-toolchain/bin/../lib/gcc/arm-none-eabi/5.3.1/../../../../arm-none-eabi/lib/armv6-m\libc_nano.a(lib_a-strlen.o)
 .text          0x00000000        0x0 c:/program files (x86)/atmel/studio/7.0/toolchain/arm/arm-gnu-toolchain/bin/../lib/gcc/arm-none-eabi/5.3.1/../../../../arm-none-eabi/lib/armv6-m\libc_nano.a(lib_a-wbuf.o)
 .data          0x00000000        0x0 c:/program files (x86)/atmel/studio/7.0/toolchain/arm/arm-gnu-toolchain/bin/../lib/gcc/arm-none-eabi/5.3.1/../../../../arm-none-eabi/lib/armv6-m\libc_nano.a(lib_a-wbuf.o)
 .bss           0x00000000        0x0 c:/program files (x86)/atmel/studio/7.0/toolchain/arm/arm-gnu-toolchain/bin/../lib/gcc/arm-none-eabi/5.3.1/../../../../arm-none-eabi/lib/armv6-m\libc_nano.a(lib_a-wbuf.o)
 .text.__swbuf  0x00000000       0x14 c:/program files (x86)/atmel/studio/7.0/toolchain/arm/arm-gnu-toolchain/bin/../lib/gcc/arm-none-eabi/5.3.1/../../../../arm-none-eabi/lib/armv6-m\libc_nano.a(lib_a-wbuf.o)
 .text          0x00000000        0x0 c:/program files (x86)/atmel/studio/7.0/toolchain/arm/arm-gnu-toolchain/bin/../lib/gcc/arm-none-eabi/5.3.1/../../../../arm-none-eabi/lib/armv6-m\libc_nano.a(lib_a-writer.o)
 .data          0x00000000        0x0 c:/program files (x86)/atmel/studio/7.0/toolchain/arm/arm-gnu-toolchain/bin/../lib/gcc/arm-none-eabi/5.3.1/../../../../arm-none-eabi/lib/armv6-m\libc_nano.a(lib_a-writer.o)
 .bss           0x00000000        0x0 c:/program files (x86)/atmel/studio/7.0/toolchain/arm/arm-gnu-toolchain/bin/../lib/gcc/arm-none-eabi/5.3.1/../../../../arm-none-eabi/lib/armv6-m\libc_nano.a(lib_a-writer.o)
 .text          0x00000000        0x0 c:/program files (x86)/atmel/studio/7.0/toolchain/arm/arm-gnu-toolchain/bin/../lib/gcc/arm-none-eabi/5.3.1/../../../../arm-none-eabi/lib/armv6-m\libc_nano.a(lib_a-wsetup.o)
 .data          0x00000000        0x0 c:/program files (x86)/atmel/studio/7.0/toolchain/arm/arm-gnu-toolchain/bin/../lib/gcc/arm-none-eabi/5.3.1/../../../../arm-none-eabi/lib/armv6-m\libc_nano.a(lib_a-wsetup.o)
 .bss           0x00000000        0x0 c:/program files (x86)/atmel/studio/7.0/toolchain/arm/arm-gnu-toolchain/bin/../lib/gcc/arm-none-eabi/5.3.1/../../../../arm-none-eabi/lib/armv6-m\libc_nano.a(lib_a-wsetup.o)
 .text          0x00000000        0x0 c:/program files (x86)/atmel/studio/7.0/toolchain/arm/arm-gnu-toolchain/bin/../lib/gcc/arm-none-eabi/5.3.1/../../../../arm-none-eabi/lib/armv6-m\libc_nano.a(lib_a-closer.o)
 .data          0x00000000        0x0 c:/program files (x86)/atmel/studio/7.0/toolchain/arm/arm-gnu-toolchain/bin/../lib/gcc/arm-none-eabi/5.3.1/../../../../arm-none-eabi/lib/armv6-m\libc_nano.a(lib_a-closer.o)
 .bss           0x00000000        0x0 c:/program files (x86)/atmel/studio/7.0/toolchain/arm/arm-gnu-toolchain/bin/../lib/gcc/arm-none-eabi/5.3.1/../../../../arm-none-eabi/lib/armv6-m\libc_nano.a(lib_a-closer.o)
 .text          0x00000000        0x0 c:/program files (x86)/atmel/studio/7.0/toolchain/arm/arm-gnu-toolchain/bin/../lib/gcc/arm-none-eabi/5.3.1/../../../../arm-none-eabi/lib/armv6-m\libc_nano.a(lib_a-lseekr.o)
 .data          0x00000000        0x0 c:/program files (x86)/atmel/studio/7.0/toolchain/arm/arm-gnu-toolchain/bin/../lib/gcc/arm-none-eabi/5.3.1/../../../../arm-none-eabi/lib/armv6-m\libc_nano.a(lib_a-lseekr.o)
 .bss           0x00000000        0x0 c:/program files (x86)/atmel/studio/7.0/toolchain/arm/arm-gnu-toolchain/bin/../lib/gcc/arm-none-eabi/5.3.1/../../../../arm-none-eabi/lib/armv6-m\libc_nano.a(lib_a-lseekr.o)
 .text          0x00000000        0x0 c:/program files (x86)/atmel/studio/7.0/toolchain/arm/arm-gnu-toolchain/bin/../lib/gcc/arm-none-eabi/5.3.1/../../../../arm-none-eabi/lib/armv6-m\libc_nano.a(lib_a-makebuf.o)
 .data          0x00000000        0x0 c:/program files (x86)/atmel/studio/7.0/toolchain/arm/arm-gnu-toolchain/bin/../lib/gcc/arm-none-eabi/5.3.1/../../../../arm-none-eabi/lib/armv6-m\libc_nano.a(lib_a-makebuf.o)
 .bss           0x00000000        0x0 c:/program files (x86)/atmel/studio/7.0/toolchain/arm/arm-gnu-toolchain/bin/../lib/gcc/arm-none-eabi/5.3.1/../../../../arm-none-eabi/lib/armv6-m\libc_nano.a(lib_a-makebuf.o)
 .text          0x00000000        0x0 c:/program files (x86)/atmel/studio/7.0/toolchain/arm/arm-gnu-toolchain/bin/../lib/gcc/arm-none-eabi/5.3.1/../../../../arm-none-eabi/lib/armv6-m\libc_nano.a(lib_a-malloc.o)
 .data          0x00000000        0x0 c:/program files (x86)/atmel/studio/7.0/toolchain/arm/arm-gnu-toolchain/bin/../lib/gcc/arm-none-eabi/5.3.1/../../../../arm-none-eabi/lib/armv6-m\libc_nano.a(lib_a-malloc.o)
 .bss           0x00000000        0x0 c:/program files (x86)/atmel/studio/7.0/toolchain/arm/arm-gnu-toolchain/bin/../lib/gcc/arm-none-eabi/5.3.1/../../../../arm-none-eabi/lib/armv6-m\libc_nano.a(lib_a-malloc.o)
 .text.free     0x00000000       0x14 c:/program files (x86)/atmel/studio/7.0/toolchain/arm/arm-gnu-toolchain/bin/../lib/gcc/arm-none-eabi/5.3.1/../../../../arm-none-eabi/lib/armv6-m\libc_nano.a(lib_a-malloc.o)
 .text          0x00000000        0x0 c:/program files (x86)/atmel/studio/7.0/toolchain/arm/arm-gnu-toolchain/bin/../lib/gcc/arm-none-eabi/5.3.1/../../../../arm-none-eabi/lib/armv6-m\libc_nano.a(lib_a-nano-svfprintf.o)
 .data          0x00000000        0x0 c:/program files (x86)/atmel/studio/7.0/toolchain/arm/arm-gnu-toolchain/bin/../lib/gcc/arm-none-eabi/5.3.1/../../../../arm-none-eabi/lib/armv6-m\libc_nano.a(lib_a-nano-svfprintf.o)
 .bss           0x00000000        0x0 c:/program files (x86)/atmel/studio/7.0/toolchain/arm/arm-gnu-toolchain/bin/../lib/gcc/arm-none-eabi/5.3.1/../../../../arm-none-eabi/lib/armv6-m\libc_nano.a(lib_a-nano-svfprintf.o)
 .text.__ssprint_r
                0x00000000      0x100 c:/program files (x86)/atmel/studio/7.0/toolchain/arm/arm-gnu-toolchain/bin/../lib/gcc/arm-none-eabi/5.3.1/../../../../arm-none-eabi/lib/armv6-m\libc_nano.a(lib_a-nano-svfprintf.o)
 .text          0x00000000        0x0 c:/program files (x86)/atmel/studio/7.0/toolchain/arm/arm-gnu-toolchain/bin/../lib/gcc/arm-none-eabi/5.3.1/../../../../arm-none-eabi/lib/armv6-m\libc_nano.a(lib_a-nano-vfprintf.o)
 .data          0x00000000        0x0 c:/program files (x86)/atmel/studio/7.0/toolchain/arm/arm-gnu-toolchain/bin/../lib/gcc/arm-none-eabi/5.3.1/../../../../arm-none-eabi/lib/armv6-m\libc_nano.a(lib_a-nano-vfprintf.o)
 .bss           0x00000000        0x0 c:/program files (x86)/atmel/studio/7.0/toolchain/arm/arm-gnu-toolchain/bin/../lib/gcc/arm-none-eabi/5.3.1/../../../../arm-none-eabi/lib/armv6-m\libc_nano.a(lib_a-nano-vfprintf.o)
 .text.__sprint_r
                0x00000000       0x1c c:/program files (x86)/atmel/studio/7.0/toolchain/arm/arm-gnu-toolchain/bin/../lib/gcc/arm-none-eabi/5.3.1/../../../../arm-none-eabi/lib/armv6-m\libc_nano.a(lib_a-nano-vfprintf.o)
 .text.vfprintf
                0x00000000       0x18 c:/program files (x86)/atmel/studio/7.0/toolchain/arm/arm-gnu-toolchain/bin/../lib/gcc/arm-none-eabi/5.3.1/../../../../arm-none-eabi/lib/armv6-m\libc_nano.a(lib_a-nano-vfprintf.o)
 .text          0x00000000        0x0 c:/program files (x86)/atmel/studio/7.0/toolchain/arm/arm-gnu-toolchain/bin/../lib/gcc/arm-none-eabi/5.3.1/../../../../arm-none-eabi/lib/armv6-m\libc_nano.a(lib_a-nano-vfprintf_i.o)
 .data          0x00000000        0x0 c:/program files (x86)/atmel/studio/7.0/toolchain/arm/arm-gnu-toolchain/bin/../lib/gcc/arm-none-eabi/5.3.1/../../../../arm-none-eabi/lib/armv6-m\libc_nano.a(lib_a-nano-vfprintf_i.o)
 .bss           0x00000000        0x0 c:/program files (x86)/atmel/studio/7.0/toolchain/arm/arm-gnu-toolchain/bin/../lib/gcc/arm-none-eabi/5.3.1/../../../../arm-none-eabi/lib/armv6-m\libc_nano.a(lib_a-nano-vfprintf_i.o)
 .text          0x00000000        0x0 c:/program files (x86)/atmel/studio/7.0/toolchain/arm/arm-gnu-toolchain/bin/../lib/gcc/arm-none-eabi/5.3.1/../../../../arm-none-eabi/lib/armv6-m\libc_nano.a(lib_a-putc.o)
 .data          0x00000000        0x0 c:/program files (x86)/atmel/studio/7.0/toolchain/arm/arm-gnu-toolchain/bin/../lib/gcc/arm-none-eabi/5.3.1/../../../../arm-none-eabi/lib/armv6-m\libc_nano.a(lib_a-putc.o)
 .bss           0x00000000        0x0 c:/program files (x86)/atmel/studio/7.0/toolchain/arm/arm-gnu-toolchain/bin/../lib/gcc/arm-none-eabi/5.3.1/../../../../arm-none-eabi/lib/armv6-m\libc_nano.a(lib_a-putc.o)
 .text.putc     0x00000000       0x14 c:/program files (x86)/atmel/studio/7.0/toolchain/arm/arm-gnu-toolchain/bin/../lib/gcc/arm-none-eabi/5.3.1/../../../../arm-none-eabi/lib/armv6-m\libc_nano.a(lib_a-putc.o)
 .text          0x00000000        0x0 c:/program files (x86)/atmel/studio/7.0/toolchain/arm/arm-gnu-toolchain/bin/../lib/gcc/arm-none-eabi/5.3.1/../../../../arm-none-eabi/lib/armv6-m\libc_nano.a(lib_a-readr.o)
 .data          0x00000000        0x0 c:/program files (x86)/atmel/studio/7.0/toolchain/arm/arm-gnu-toolchain/bin/../lib/gcc/arm-none-eabi/5.3.1/../../../../arm-none-eabi/lib/armv6-m\libc_nano.a(lib_a-readr.o)
 .bss           0x00000000        0x0 c:/program files (x86)/atmel/studio/7.0/toolchain/arm/arm-gnu-toolchain/bin/../lib/gcc/arm-none-eabi/5.3.1/../../../../arm-none-eabi/lib/armv6-m\libc_nano.a(lib_a-readr.o)
 .text          0x00000000        0x0 c:/program files (x86)/atmel/studio/7.0/toolchain/arm/arm-gnu-toolchain/bin/../lib/gcc/arm-none-eabi/5.3.1/../../../../arm-none-eabi/lib/armv6-m\libc_nano.a(lib_a-reent.o)
 .data          0x00000000        0x0 c:/program files (x86)/atmel/studio/7.0/toolchain/arm/arm-gnu-toolchain/bin/../lib/gcc/arm-none-eabi/5.3.1/../../../../arm-none-eabi/lib/armv6-m\libc_nano.a(lib_a-reent.o)
 .bss           0x00000000        0x0 c:/program files (x86)/atmel/studio/7.0/toolchain/arm/arm-gnu-toolchain/bin/../lib/gcc/arm-none-eabi/5.3.1/../../../../arm-none-eabi/lib/armv6-m\libc_nano.a(lib_a-reent.o)
 .text.cleanup_glue
                0x00000000       0x1a c:/program files (x86)/atmel/studio/7.0/toolchain/arm/arm-gnu-toolchain/bin/../lib/gcc/arm-none-eabi/5.3.1/../../../../arm-none-eabi/lib/armv6-m\libc_nano.a(lib_a-reent.o)
 .text._reclaim_reent
                0x00000000       0xcc c:/program files (x86)/atmel/studio/7.0/toolchain/arm/arm-gnu-toolchain/bin/../lib/gcc/arm-none-eabi/5.3.1/../../../../arm-none-eabi/lib/armv6-m\libc_nano.a(lib_a-reent.o)
 .text          0x00000000        0x0 c:/program files (x86)/atmel/studio/7.0/toolchain/arm/arm-gnu-toolchain/bin/../lib/gcc/arm-none-eabi/5.3.1/../../../../arm-none-eabi/lib/armv6-m\libc_nano.a(lib_a-fstatr.o)
 .data          0x00000000        0x0 c:/program files (x86)/atmel/studio/7.0/toolchain/arm/arm-gnu-toolchain/bin/../lib/gcc/arm-none-eabi/5.3.1/../../../../arm-none-eabi/lib/armv6-m\libc_nano.a(lib_a-fstatr.o)
 .bss           0x00000000        0x0 c:/program files (x86)/atmel/studio/7.0/toolchain/arm/arm-gnu-toolchain/bin/../lib/gcc/arm-none-eabi/5.3.1/../../../../arm-none-eabi/lib/armv6-m\libc_nano.a(lib_a-fstatr.o)
 .text          0x00000000        0x0 c:/program files (x86)/atmel/studio/7.0/toolchain/arm/arm-gnu-toolchain/bin/../lib/gcc/arm-none-eabi/5.3.1/../../../../arm-none-eabi/lib/armv6-m\libc_nano.a(lib_a-fvwrite.o)
 .data          0x00000000        0x0 c:/program files (x86)/atmel/studio/7.0/toolchain/arm/arm-gnu-toolchain/bin/../lib/gcc/arm-none-eabi/5.3.1/../../../../arm-none-eabi/lib/armv6-m\libc_nano.a(lib_a-fvwrite.o)
 .bss           0x00000000        0x0 c:/program files (x86)/atmel/studio/7.0/toolchain/arm/arm-gnu-toolchain/bin/../lib/gcc/arm-none-eabi/5.3.1/../../../../arm-none-eabi/lib/armv6-m\libc_nano.a(lib_a-fvwrite.o)
 .text.__sfvwrite_r
                0x00000000      0x2d0 c:/program files (x86)/atmel/studio/7.0/toolchain/arm/arm-gnu-toolchain/bin/../lib/gcc/arm-none-eabi/5.3.1/../../../../arm-none-eabi/lib/armv6-m\libc_nano.a(lib_a-fvwrite.o)
 .debug_frame   0x00000000       0x30 c:/program files (x86)/atmel/studio/7.0/toolchain/arm/arm-gnu-toolchain/bin/../lib/gcc/arm-none-eabi/5.3.1/../../../../arm-none-eabi/lib/armv6-m\libc_nano.a(lib_a-fvwrite.o)
 .ARM.attributes
                0x00000000       0x2c c:/program files (x86)/atmel/studio/7.0/toolchain/arm/arm-gnu-toolchain/bin/../lib/gcc/arm-none-eabi/5.3.1/../../../../arm-none-eabi/lib/armv6-m\libc_nano.a(lib_a-fvwrite.o)
 .text          0x00000000        0x0 c:/program files (x86)/atmel/studio/7.0/toolchain/arm/arm-gnu-toolchain/bin/../lib/gcc/arm-none-eabi/5.3.1/../../../../arm-none-eabi/lib/armv6-m\libc_nano.a(lib_a-isattyr.o)
 .data          0x00000000        0x0 c:/program files (x86)/atmel/studio/7.0/toolchain/arm/arm-gnu-toolchain/bin/../lib/gcc/arm-none-eabi/5.3.1/../../../../arm-none-eabi/lib/armv6-m\libc_nano.a(lib_a-isattyr.o)
 .bss           0x00000000        0x0 c:/program files (x86)/atmel/studio/7.0/toolchain/arm/arm-gnu-toolchain/bin/../lib/gcc/arm-none-eabi/5.3.1/../../../../arm-none-eabi/lib/armv6-m\libc_nano.a(lib_a-isattyr.o)
 .text          0x00000000        0x0 c:/program files (x86)/atmel/studio/7.0/toolchain/arm/arm-gnu-toolchain/bin/../lib/gcc/arm-none-eabi/5.3.1/../../../../arm-none-eabi/lib/armv6-m\libc_nano.a(lib_a-memchr-stub.o)
 .data          0x00000000        0x0 c:/program files (x86)/atmel/studio/7.0/toolchain/arm/arm-gnu-toolchain/bin/../lib/gcc/arm-none-eabi/5.3.1/../../../../arm-none-eabi/lib/armv6-m\libc_nano.a(lib_a-memchr-stub.o)
 .bss           0x00000000        0x0 c:/program files (x86)/atmel/studio/7.0/toolchain/arm/arm-gnu-toolchain/bin/../lib/gcc/arm-none-eabi/5.3.1/../../../../arm-none-eabi/lib/armv6-m\libc_nano.a(lib_a-memchr-stub.o)
 .text          0x00000000        0x0 c:/program files (x86)/atmel/studio/7.0/toolchain/arm/arm-gnu-toolchain/bin/../lib/gcc/arm-none-eabi/5.3.1/../../../../arm-none-eabi/lib/armv6-m\libc_nano.a(lib_a-memmove.o)
 .data          0x00000000        0x0 c:/program files (x86)/atmel/studio/7.0/toolchain/arm/arm-gnu-toolchain/bin/../lib/gcc/arm-none-eabi/5.3.1/../../../../arm-none-eabi/lib/armv6-m\libc_nano.a(lib_a-memmove.o)
 .bss           0x00000000        0x0 c:/program files (x86)/atmel/studio/7.0/toolchain/arm/arm-gnu-toolchain/bin/../lib/gcc/arm-none-eabi/5.3.1/../../../../arm-none-eabi/lib/armv6-m\libc_nano.a(lib_a-memmove.o)
 .text          0x00000000        0x0 c:/program files (x86)/atmel/studio/7.0/toolchain/arm/arm-gnu-toolchain/bin/../lib/gcc/arm-none-eabi/5.3.1/../../../../arm-none-eabi/lib/armv6-m\libc_nano.a(lib_a-nano-reallocr.o)
 .data          0x00000000        0x0 c:/program files (x86)/atmel/studio/7.0/toolchain/arm/arm-gnu-toolchain/bin/../lib/gcc/arm-none-eabi/5.3.1/../../../../arm-none-eabi/lib/armv6-m\libc_nano.a(lib_a-nano-reallocr.o)
 .bss           0x00000000        0x0 c:/program files (x86)/atmel/studio/7.0/toolchain/arm/arm-gnu-toolchain/bin/../lib/gcc/arm-none-eabi/5.3.1/../../../../arm-none-eabi/lib/armv6-m\libc_nano.a(lib_a-nano-reallocr.o)
 .text          0x00000000        0x0 c:/program files (x86)/atmel/studio/7.0/toolchain/arm/arm-gnu-toolchain/bin/../lib/gcc/arm-none-eabi/5.3.1/../../../../arm-none-eabi/lib/armv6-m\libc_nano.a(lib_a-nano-msizer.o)
 .data          0x00000000        0x0 c:/program files (x86)/atmel/studio/7.0/toolchain/arm/arm-gnu-toolchain/bin/../lib/gcc/arm-none-eabi/5.3.1/../../../../arm-none-eabi/lib/armv6-m\libc_nano.a(lib_a-nano-msizer.o)
 .bss           0x00000000        0x0 c:/program files (x86)/atmel/studio/7.0/toolchain/arm/arm-gnu-toolchain/bin/../lib/gcc/arm-none-eabi/5.3.1/../../../../arm-none-eabi/lib/armv6-m\libc_nano.a(lib_a-nano-msizer.o)
 .data          0x00000000        0x0 c:/program files (x86)/atmel/studio/7.0/toolchain/arm/arm-gnu-toolchain/bin/../lib/gcc/arm-none-eabi/5.3.1/armv6-m\libgcc.a(_muldi3.o)
 .bss           0x00000000        0x0 c:/program files (x86)/atmel/studio/7.0/toolchain/arm/arm-gnu-toolchain/bin/../lib/gcc/arm-none-eabi/5.3.1/armv6-m\libgcc.a(_muldi3.o)
 .text          0x00000000        0x0 c:/program files (x86)/atmel/studio/7.0/toolchain/arm/arm-gnu-toolchain/bin/../lib/gcc/arm-none-eabi/5.3.1/armv6-m/crtend.o
 .data          0x00000000        0x0 c:/program files (x86)/atmel/studio/7.0/toolchain/arm/arm-gnu-toolchain/bin/../lib/gcc/arm-none-eabi/5.3.1/armv6-m/crtend.o
 .bss           0x00000000        0x0 c:/program files (x86)/atmel/studio/7.0/toolchain/arm/arm-gnu-toolchain/bin/../lib/gcc/arm-none-eabi/5.3.1/armv6-m/crtend.o
 .eh_frame      0x00000000        0x4 c:/program files (x86)/atmel/studio/7.0/toolchain/arm/arm-gnu-toolchain/bin/../lib/gcc/arm-none-eabi/5.3.1/armv6-m/crtend.o
 .jcr           0x00000000        0x4 c:/program files (x86)/atmel/studio/7.0/toolchain/arm/arm-gnu-toolchain/bin/../lib/gcc/arm-none-eabi/5.3.1/armv6-m/crtend.o
 .ARM.attributes
                0x00000000       0x2c c:/program files (x86)/atmel/studio/7.0/toolchain/arm/arm-gnu-toolchain/bin/../lib/gcc/arm-none-eabi/5.3.1/armv6-m/crtend.o
 .text          0x00000000        0x0 c:/program files (x86)/atmel/studio/7.0/toolchain/arm/arm-gnu-toolchain/bin/../lib/gcc/arm-none-eabi/5.3.1/armv6-m/crtn.o
 .data          0x00000000        0x0 c:/program files (x86)/atmel/studio/7.0/toolchain/arm/arm-gnu-toolchain/bin/../lib/gcc/arm-none-eabi/5.3.1/armv6-m/crtn.o
 .bss           0x00000000        0x0 c:/program files (x86)/atmel/studio/7.0/toolchain/arm/arm-gnu-toolchain/bin/../lib/gcc/arm-none-eabi/5.3.1/armv6-m/crtn.o

Memory Configuration

Name             Origin             Length             Attributes
ram              0x10008000         0x00017800         xrw
lram             0x1001f800         0x00000800         xrw
*default*        0x00000000         0xffffffff

Linker script and memory map

LOAD c:/program files (x86)/atmel/studio/7.0/toolchain/arm/arm-gnu-toolchain/bin/../lib/gcc/arm-none-eabi/5.3.1/armv6-m/crti.o
LOAD c:/program files (x86)/atmel/studio/7.0/toolchain/arm/arm-gnu-toolchain/bin/../lib/gcc/arm-none-eabi/5.3.1/armv6-m/crtbegin.o
LOAD c:/program files (x86)/atmel/studio/7.0/toolchain/arm/arm-gnu-toolchain/bin/../lib/gcc/arm-none-eabi/5.3.1/../../../../arm-none-eabi/lib/armv6-m/crt0.o
LOAD src/ADC_GPIO.o
LOAD src/ASF/sam0/drivers/adc/adc_sam_b/adc_sam_b.o
LOAD src/ASF/sam0/drivers/pwm/pwm.o
LOAD src/ASF/sam0/drivers/timer/timer.o
LOAD src/ASF/common/utils/interrupt/interrupt_sam_nvic.o
LOAD src/ASF/sam0/boards/samb11_xplained_pro/board_init.o
LOAD src/ASF/sam0/drivers/dualtimer/dualtimer.o
LOAD src/ASF/sam0/drivers/gpio/gpio.o
LOAD src/ASF/sam0/drivers/system/system_sam_b.o
LOAD src/ASF/sam0/drivers/uart/uart.o
LOAD src/ASF/sam0/utils/cmsis/samb11/source/gcc/startup_samb11.o
LOAD src/ASF/sam0/utils/cmsis/samb11/source/system_samb11.o
LOAD src/ASF/sam0/utils/stdio/read.o
LOAD src/ASF/sam0/utils/stdio/write.o
LOAD src/ASF/sam0/utils/syscalls/gcc/syscalls.o
LOAD src/ASF/thirdparty/wireless/ble_smart_sdk/ble_services/ble_mgr/ble_manager.o
LOAD src/ASF/thirdparty/wireless/ble_smart_sdk/services/dualtimer/timer_hw.o
LOAD src/ASF/thirdparty/wireless/ble_smart_sdk/services/gpio/button.o
LOAD src/ASF/thirdparty/wireless/ble_smart_sdk/services/gpio/led.o
LOAD src/ASF/thirdparty/wireless/ble_smart_sdk/services/uart/console_serial.o
LOAD src/ASF/thirdparty/wireless/ble_smart_sdk/src/event_handler.o
LOAD src/ASF/thirdparty/wireless/ble_smart_sdk/src/platform_drv.o
LOAD src/ASF/thirdparty/wireless/ble_smart_sdk/src/port_from_sdk.o
LOAD src/BLE.o
LOAD src/Buttons.o
LOAD src/LED.o
LOAD src/LSM9DS0.o
LOAD src/LSM9DS1.o
LOAD src/main_sam_b.o
START GROUP
LOAD C:\Senior-Design\Cymote\Cymote2\Cymote2\src\ASF\thirdparty\wireless\ble_smart_sdk\lib\cm0\gcc\libblusdk.a
LOAD ../src/ASF/thirdparty/CMSIS/Lib/GCC\libarm_cortexM0l_math.a
LOAD c:/program files (x86)/atmel/studio/7.0/toolchain/arm/arm-gnu-toolchain/bin/../lib/gcc/arm-none-eabi/5.3.1/../../../../arm-none-eabi/lib/armv6-m\libm.a
LOAD C:\Senior-Design\Cymote\Cymote2\Cymote2\src\ASF\thirdparty\wireless\ble_smart_sdk\lib\cm0\gcc\libblusdk.a
END GROUP
START GROUP
LOAD c:/program files (x86)/atmel/studio/7.0/toolchain/arm/arm-gnu-toolchain/bin/../lib/gcc/arm-none-eabi/5.3.1/armv6-m\libgcc.a
LOAD c:/program files (x86)/atmel/studio/7.0/toolchain/arm/arm-gnu-toolchain/bin/../lib/gcc/arm-none-eabi/5.3.1/../../../../arm-none-eabi/lib/armv6-m\libc_nano.a
END GROUP
START GROUP
LOAD c:/program files (x86)/atmel/studio/7.0/toolchain/arm/arm-gnu-toolchain/bin/../lib/gcc/arm-none-eabi/5.3.1/armv6-m\libgcc.a
LOAD c:/program files (x86)/atmel/studio/7.0/toolchain/arm/arm-gnu-toolchain/bin/../lib/gcc/arm-none-eabi/5.3.1/../../../../arm-none-eabi/lib/armv6-m\libc_nano.a
END GROUP
LOAD c:/program files (x86)/atmel/studio/7.0/toolchain/arm/arm-gnu-toolchain/bin/../lib/gcc/arm-none-eabi/5.3.1/armv6-m/crtend.o
LOAD c:/program files (x86)/atmel/studio/7.0/toolchain/arm/arm-gnu-toolchain/bin/../lib/gcc/arm-none-eabi/5.3.1/armv6-m/crtn.o
                0x00000800                STACK_SIZE = DEFINED (STACK_SIZE)?STACK_SIZE:DEFINED (__stack_size__)?__stack_size__:0x800

.text           0x10008000     0xa380
                0x10008000                . = ALIGN (0x4)
                0x10008000                _sfixed = .
 *(.test.main .text.app_entry)
 .text.app_entry
                0x10008000       0x54 src/ASF/sam0/utils/cmsis/samb11/source/gcc/startup_samb11.o
                0x10008000                app_entry
 *(.text .text.* .gnu.linkonce.t.*)
 .text          0x10008054       0x60 c:/program files (x86)/atmel/studio/7.0/toolchain/arm/arm-gnu-toolchain/bin/../lib/gcc/arm-none-eabi/5.3.1/armv6-m/crtbegin.o
 .text.configure_adc_4
                0x100080b4       0x28 src/ADC_GPIO.o
                0x100080b4                configure_adc_4
 .text.configure_adc_3
                0x100080dc       0x28 src/ADC_GPIO.o
                0x100080dc                configure_adc_3
 .text.configure_gpio_pins
                0x10008104       0x98 src/ADC_GPIO.o
                0x10008104                configure_gpio_pins
 .text._adc_gpio_ms_enable
                0x1000819c       0x34 src/ASF/sam0/drivers/adc/adc_sam_b/adc_sam_b.o
 .text.adc_get_config_defaults
                0x100081d0       0x1e src/ASF/sam0/drivers/adc/adc_sam_b/adc_sam_b.o
                0x100081d0                adc_get_config_defaults
 *fill*         0x100081ee        0x2 
 .text.adc_init
                0x100081f0       0xf0 src/ASF/sam0/drivers/adc/adc_sam_b/adc_sam_b.o
                0x100081f0                adc_init
 .text.adc_enable
                0x100082e0       0x2c src/ASF/sam0/drivers/adc/adc_sam_b/adc_sam_b.o
                0x100082e0                adc_enable
 .text.adc_read
                0x1000830c       0x40 src/ASF/sam0/drivers/adc/adc_sam_b/adc_sam_b.o
                0x1000830c                adc_read
 .text.dualtimer_isr_handler
                0x1000834c       0x48 src/ASF/sam0/drivers/dualtimer/dualtimer.o
 .text.dualtimer_get_config_defaults
                0x10008394       0x22 src/ASF/sam0/drivers/dualtimer/dualtimer.o
                0x10008394                dualtimer_get_config_defaults
 *fill*         0x100083b6        0x2 
 .text.dualtimer_set_counter
                0x100083b8       0x24 src/ASF/sam0/drivers/dualtimer/dualtimer.o
                0x100083b8                dualtimer_set_counter
 .text.dualtimer_enable
                0x100083dc       0x28 src/ASF/sam0/drivers/dualtimer/dualtimer.o
                0x100083dc                dualtimer_enable
 .text.dualtimer_disable
                0x10008404       0x24 src/ASF/sam0/drivers/dualtimer/dualtimer.o
                0x10008404                dualtimer_disable
 .text.dualtimer_init
                0x10008428      0x10c src/ASF/sam0/drivers/dualtimer/dualtimer.o
                0x10008428                dualtimer_init
 .text.dualtimer_register_callback
                0x10008534       0x14 src/ASF/sam0/drivers/dualtimer/dualtimer.o
                0x10008534                dualtimer_register_callback
 .text.gpio_port0_isr_handler
                0x10008548       0x58 src/ASF/sam0/drivers/gpio/gpio.o
 .text.gpio_port1_isr_handler
                0x100085a0       0x70 src/ASF/sam0/drivers/gpio/gpio.o
 .text.gpio_port2_isr_handler
                0x10008610       0x7c src/ASF/sam0/drivers/gpio/gpio.o
 .text.gpio_get_config_defaults
                0x1000868c        0xe src/ASF/sam0/drivers/gpio/gpio.o
                0x1000868c                gpio_get_config_defaults
 *fill*         0x1000869a        0x2 
 .text.gpio_pin_set_config
                0x1000869c      0x184 src/ASF/sam0/drivers/gpio/gpio.o
                0x1000869c                gpio_pin_set_config
 .text.gpio_pin_get_input_level
                0x10008820       0x3c src/ASF/sam0/drivers/gpio/gpio.o
                0x10008820                gpio_pin_get_input_level
 .text.gpio_pin_set_output_level
                0x1000885c       0x4c src/ASF/sam0/drivers/gpio/gpio.o
                0x1000885c                gpio_pin_set_output_level
 .text.gpio_pinmux_cofiguration
                0x100088a8       0xd8 src/ASF/sam0/drivers/gpio/gpio.o
                0x100088a8                gpio_pinmux_cofiguration
 .text.gpio_register_callback
                0x10008980       0x98 src/ASF/sam0/drivers/gpio/gpio.o
                0x10008980                gpio_register_callback
 .text.gpio_enable_callback
                0x10008a18       0x4c src/ASF/sam0/drivers/gpio/gpio.o
                0x10008a18                gpio_enable_callback
 .text.gpio_disable_callback
                0x10008a64       0x38 src/ASF/sam0/drivers/gpio/gpio.o
                0x10008a64                gpio_disable_callback
 .text.gpio_init
                0x10008a9c       0x6c src/ASF/sam0/drivers/gpio/gpio.o
                0x10008a9c                gpio_init
 .text.system_clock_config
                0x10008b08       0x78 src/ASF/sam0/drivers/system/system_sam_b.o
                0x10008b08                system_clock_config
 .text.system_clock_get_value
                0x10008b80        0xc src/ASF/sam0/drivers/system/system_sam_b.o
                0x10008b80                system_clock_get_value
 .text.system_clock_peripheral_enable
                0x10008b8c      0x1e8 src/ASF/sam0/drivers/system/system_sam_b.o
                0x10008b8c                system_clock_peripheral_enable
 .text.system_peripheral_reset
                0x10008d74      0x388 src/ASF/sam0/drivers/system/system_sam_b.o
                0x10008d74                system_peripheral_reset
 .text.system_register_isr
                0x100090fc        0xc src/ASF/sam0/drivers/system/system_sam_b.o
                0x100090fc                system_register_isr
 .text.uart_rx0_isr_handler
                0x10009108       0x8c src/ASF/sam0/drivers/uart/uart.o
 .text.uart_tx1_isr_handler
                0x10009194       0x8c src/ASF/sam0/drivers/uart/uart.o
 .text.uart_rx1_isr_handler
                0x10009220       0x8c src/ASF/sam0/drivers/uart/uart.o
 .text.uart_tx0_isr_handler
                0x100092ac       0x8c src/ASF/sam0/drivers/uart/uart.o
 .text.uart_get_config_defaults
                0x10009338       0x2a src/ASF/sam0/drivers/uart/uart.o
                0x10009338                uart_get_config_defaults
 *fill*         0x10009362        0x2 
 .text.uart_init
                0x10009364      0x17c src/ASF/sam0/drivers/uart/uart.o
                0x10009364                uart_init
 .text.uart_write_wait
                0x100094e0       0x10 src/ASF/sam0/drivers/uart/uart.o
                0x100094e0                uart_write_wait
 .text.uart_read_wait
                0x100094f0       0x12 src/ASF/sam0/drivers/uart/uart.o
                0x100094f0                uart_read_wait
 .text.uart_read_buffer_job
                0x10009502       0x26 src/ASF/sam0/drivers/uart/uart.o
                0x10009502                uart_read_buffer_job
 .text.uart_register_callback
                0x10009528       0x14 src/ASF/sam0/drivers/uart/uart.o
                0x10009528                uart_register_callback
 .text.uart_enable_callback
                0x1000953c       0x1e src/ASF/sam0/drivers/uart/uart.o
                0x1000953c                uart_enable_callback
 .text.uart_disable_callback
                0x1000955a       0x1e src/ASF/sam0/drivers/uart/uart.o
                0x1000955a                uart_disable_callback
 .text._read    0x10009578       0x38 src/ASF/sam0/utils/stdio/read.o
                0x10009578                _read
 .text._write   0x100095b0       0x34 src/ASF/sam0/utils/stdio/write.o
                0x100095b0                _write
 .text._sbrk    0x100095e4       0x20 src/ASF/sam0/utils/syscalls/gcc/syscalls.o
                0x100095e4                _sbrk
 .text._close   0x10009604        0x6 src/ASF/sam0/utils/syscalls/gcc/syscalls.o
                0x10009604                _close
 .text._fstat   0x1000960a        0xa src/ASF/sam0/utils/syscalls/gcc/syscalls.o
                0x1000960a                _fstat
 .text._isatty  0x10009614        0x4 src/ASF/sam0/utils/syscalls/gcc/syscalls.o
                0x10009614                _isatty
 .text._lseek   0x10009618        0x4 src/ASF/sam0/utils/syscalls/gcc/syscalls.o
                0x10009618                _lseek
 .text.ble_characteristic_write_cmd_complete_handler
                0x1000961c        0xa src/ASF/thirdparty/wireless/ble_smart_sdk/ble_services/ble_mgr/ble_manager.o
                0x1000961c                ble_characteristic_write_cmd_complete_handler
 .text.ble_conn_param_update
                0x10009626        0x4 src/ASF/thirdparty/wireless/ble_smart_sdk/ble_services/ble_mgr/ble_manager.o
                0x10009626                ble_conn_param_update
 *fill*         0x1000962a        0x2 
 .text.ble_disconnected_state_handler
                0x1000962c       0x90 src/ASF/thirdparty/wireless/ble_smart_sdk/ble_services/ble_mgr/ble_manager.o
                0x1000962c                ble_disconnected_state_handler
 .text.ble_pair_done_handler
                0x100096bc       0xfc src/ASF/thirdparty/wireless/ble_smart_sdk/ble_services/ble_mgr/ble_manager.o
                0x100096bc                ble_pair_done_handler
 .text.ble_conn_param_update_req
                0x100097b8       0x18 src/ASF/thirdparty/wireless/ble_smart_sdk/ble_services/ble_mgr/ble_manager.o
                0x100097b8                ble_conn_param_update_req
 .text.ble_slave_security_request_handler
                0x100097d0      0x19c src/ASF/thirdparty/wireless/ble_smart_sdk/ble_services/ble_mgr/ble_manager.o
                0x100097d0                ble_slave_security_request_handler
 .text.ble_pair_request_handler
                0x1000996c      0x118 src/ASF/thirdparty/wireless/ble_smart_sdk/ble_services/ble_mgr/ble_manager.o
                0x1000996c                ble_pair_request_handler
 .text.ble_pair_key_request_handler
                0x10009a84      0x150 src/ASF/thirdparty/wireless/ble_smart_sdk/ble_services/ble_mgr/ble_manager.o
                0x10009a84                ble_pair_key_request_handler
 .text.ble_encryption_request_handler
                0x10009bd4       0xd0 src/ASF/thirdparty/wireless/ble_smart_sdk/ble_services/ble_mgr/ble_manager.o
                0x10009bd4                ble_encryption_request_handler
 .text.ble_scan_report_handler
                0x10009ca4       0x28 src/ASF/thirdparty/wireless/ble_smart_sdk/ble_services/ble_mgr/ble_manager.o
                0x10009ca4                ble_scan_report_handler
 .text.ble_mtu_changed_cmd_complete_handler
                0x10009ccc       0x30 src/ASF/thirdparty/wireless/ble_smart_sdk/ble_services/ble_mgr/ble_manager.o
                0x10009ccc                ble_mtu_changed_cmd_complete_handler
 .text.ble_encryption_status_change_handler
                0x10009cfc       0xa8 src/ASF/thirdparty/wireless/ble_smart_sdk/ble_services/ble_mgr/ble_manager.o
                0x10009cfc                ble_encryption_status_change_handler
 .text.ble_scan_info_handler
                0x10009da4       0x70 src/ASF/thirdparty/wireless/ble_smart_sdk/ble_services/ble_mgr/ble_manager.o
                0x10009da4                ble_scan_info_handler
 .text.ble_connected_state_handler
                0x10009e14      0x1b4 src/ASF/thirdparty/wireless/ble_smart_sdk/ble_services/ble_mgr/ble_manager.o
                0x10009e14                ble_connected_state_handler
 .text.ble_resolv_rand_addr_handler
                0x10009fc8       0x98 src/ASF/thirdparty/wireless/ble_smart_sdk/ble_services/ble_mgr/ble_manager.o
                0x10009fc8                ble_resolv_rand_addr_handler
 .text.ble_mtu_changed_indication_handler
                0x1000a060        0x4 src/ASF/thirdparty/wireless/ble_smart_sdk/ble_services/ble_mgr/ble_manager.o
                0x1000a060                ble_mtu_changed_indication_handler
 .text.ble_undefined_event_handler
                0x1000a064        0x4 src/ASF/thirdparty/wireless/ble_smart_sdk/ble_services/ble_mgr/ble_manager.o
                0x1000a064                ble_undefined_event_handler
 .text.ble_mgr_events_callback_handler
                0x1000a068       0x64 src/ASF/thirdparty/wireless/ble_smart_sdk/ble_services/ble_mgr/ble_manager.o
                0x1000a068                ble_mgr_events_callback_handler
 .text.ble_device_init
                0x1000a0cc      0x2a8 src/ASF/thirdparty/wireless/ble_smart_sdk/ble_services/ble_mgr/ble_manager.o
                0x1000a0cc                ble_device_init
 .text.ble_event_manager
                0x1000a374      0x11c src/ASF/thirdparty/wireless/ble_smart_sdk/ble_services/ble_mgr/ble_manager.o
                0x1000a374                ble_event_manager
 .text.ble_event_task
                0x1000a490       0x58 src/ASF/thirdparty/wireless/ble_smart_sdk/ble_services/ble_mgr/ble_manager.o
                0x1000a490                ble_event_task
 .text.ble_advertisement_data_set
                0x1000a4e8       0x7c src/ASF/thirdparty/wireless/ble_smart_sdk/ble_services/ble_mgr/ble_manager.o
                0x1000a4e8                ble_advertisement_data_set
 .text.hw_timer_init
                0x1000a564       0x2c src/ASF/thirdparty/wireless/ble_smart_sdk/services/dualtimer/timer_hw.o
                0x1000a564                hw_timer_init
 .text.hw_timer_register_callback
                0x1000a590       0x34 src/ASF/thirdparty/wireless/ble_smart_sdk/services/dualtimer/timer_hw.o
                0x1000a590                hw_timer_register_callback
 .text.hw_timer_start
                0x1000a5c4       0x44 src/ASF/thirdparty/wireless/ble_smart_sdk/services/dualtimer/timer_hw.o
                0x1000a5c4                hw_timer_start
 .text.button_callback
                0x1000a608       0x28 src/ASF/thirdparty/wireless/ble_smart_sdk/services/gpio/button.o
 .text.button_init
                0x1000a630       0x24 src/ASF/thirdparty/wireless/ble_smart_sdk/services/gpio/button.o
                0x1000a630                button_init
 .text.button_register_callback
                0x1000a654       0x38 src/ASF/thirdparty/wireless/ble_smart_sdk/services/gpio/button.o
                0x1000a654                button_register_callback
 .text.usart_serial_getchar
                0x1000a68c       0x18 src/ASF/thirdparty/wireless/ble_smart_sdk/services/uart/console_serial.o
 .text.usart_serial_putchar
                0x1000a6a4       0x18 src/ASF/thirdparty/wireless/ble_smart_sdk/services/uart/console_serial.o
 .text.uart_read_complete_callback
                0x1000a6bc       0x50 src/ASF/thirdparty/wireless/ble_smart_sdk/services/uart/console_serial.o
 .text.serial_console_init
                0x1000a70c       0xa8 src/ASF/thirdparty/wireless/ble_smart_sdk/services/uart/console_serial.o
                0x1000a70c                serial_console_init
 .text._time_start
                0x1000a7b4       0x54 src/ASF/thirdparty/wireless/ble_smart_sdk/services/uart/console_serial.o
                0x1000a7b4                _time_start
 .text._time_done
                0x1000a808       0x10 src/ASF/thirdparty/wireless/ble_smart_sdk/services/uart/console_serial.o
                0x1000a808                _time_done
 .text.getchar_b11_timeout
                0x1000a818       0x68 src/ASF/thirdparty/wireless/ble_smart_sdk/services/uart/console_serial.o
                0x1000a818                getchar_b11_timeout
 .text.platform_event_free
                0x1000a880       0x10 src/ASF/thirdparty/wireless/ble_smart_sdk/src/event_handler.o
                0x1000a880                platform_event_free
 .text.platform_event_post
                0x1000a890       0x3c src/ASF/thirdparty/wireless/ble_smart_sdk/src/event_handler.o
                0x1000a890                platform_event_post
 .text.platform_event_init
                0x1000a8cc       0x2c src/ASF/thirdparty/wireless/ble_smart_sdk/src/event_handler.o
                0x1000a8cc                platform_event_init
 .text.samb11_plf_resume_callback
                0x1000a8f8       0x2c src/ASF/thirdparty/wireless/ble_smart_sdk/src/platform_drv.o
                0x1000a8f8                samb11_plf_resume_callback
 .text.at_ke_msg_send
                0x1000a924       0x78 src/ASF/thirdparty/wireless/ble_smart_sdk/src/platform_drv.o
 .text.init_port_list
                0x1000a99c       0x44 src/ASF/thirdparty/wireless/ble_smart_sdk/src/platform_drv.o
                0x1000a99c                init_port_list
 .text.init_clock
                0x1000a9e0       0x30 src/ASF/thirdparty/wireless/ble_smart_sdk/src/platform_drv.o
                0x1000a9e0                init_clock
 .text.platform_driver_init
                0x1000aa10      0x230 src/ASF/thirdparty/wireless/ble_smart_sdk/src/platform_drv.o
                0x1000aa10                platform_driver_init
 .text.platform_register_ble_msg_handler
                0x1000ac40       0x1c src/ASF/thirdparty/wireless/ble_smart_sdk/src/platform_drv.o
                0x1000ac40                platform_register_ble_msg_handler
 .text.platform_interface_send
                0x1000ac5c       0x48 src/ASF/thirdparty/wireless/ble_smart_sdk/src/platform_drv.o
                0x1000ac5c                platform_interface_send
 .text.send_plf_int_msg_ind
                0x1000aca4       0x40 src/ASF/thirdparty/wireless/ble_smart_sdk/src/platform_drv.o
                0x1000aca4                send_plf_int_msg_ind
 .text.platform_event_wait
                0x1000ace4      0x200 src/ASF/thirdparty/wireless/ble_smart_sdk/src/platform_drv.o
                0x1000ace4                platform_event_wait
 .text.acquire_sleep_lock
                0x1000aee4       0x14 src/ASF/thirdparty/wireless/ble_smart_sdk/src/platform_drv.o
                0x1000aee4                acquire_sleep_lock
 .text.release_message_lock
                0x1000aef8       0x14 src/ASF/thirdparty/wireless/ble_smart_sdk/src/platform_drv.o
                0x1000aef8                release_message_lock
 .text.release_sleep_lock
                0x1000af0c       0x1c src/ASF/thirdparty/wireless/ble_smart_sdk/src/platform_drv.o
                0x1000af0c                release_sleep_lock
 .text.gpio1_combined_isr_handler
                0x1000af28       0x58 src/ASF/thirdparty/wireless/ble_smart_sdk/src/port_from_sdk.o
                0x1000af28                gpio1_combined_isr_handler
 .text.gpio0_combined_isr_handler
                0x1000af80       0x58 src/ASF/thirdparty/wireless/ble_smart_sdk/src/port_from_sdk.o
                0x1000af80                gpio0_combined_isr_handler
 .text.PORT1_COMB_Handler
                0x1000afd8       0x40 src/ASF/thirdparty/wireless/ble_smart_sdk/src/port_from_sdk.o
                0x1000afd8                PORT1_COMB_Handler
 .text.wakeup_int_unregister_callback
                0x1000b018       0x18 src/ASF/thirdparty/wireless/ble_smart_sdk/src/port_from_sdk.o
                0x1000b018                wakeup_int_unregister_callback
 .text.wakeup_active_event_callback
                0x1000b030       0x64 src/ASF/thirdparty/wireless/ble_smart_sdk/src/port_from_sdk.o
                0x1000b030                wakeup_active_event_callback
 .text.characteristic_uuid_init
                0x1000b094       0x64 src/BLE.o
                0x1000b094                characteristic_uuid_init
 .text.characteristic_description_init
                0x1000b0f8       0x3c src/BLE.o
                0x1000b0f8                characteristic_description_init
 .text.characteristic_attribute_descriptions_init
                0x1000b134       0x58 src/BLE.o
                0x1000b134                characteristic_attribute_descriptions_init
 .text.cymote_service_init
                0x1000b18c      0x290 src/BLE.o
                0x1000b18c                cymote_service_init
 .text.device_information_advertise
                0x1000b41c       0x70 src/BLE.o
                0x1000b41c                device_information_advertise
 .text.ble_disconnected_app_event
                0x1000b48c       0x10 src/BLE.o
                0x1000b48c                ble_disconnected_app_event
 .text.ble_connected_app_event
                0x1000b49c       0x10 src/BLE.o
                0x1000b49c                ble_connected_app_event
 .text.get_button_data
                0x1000b4ac       0x2c src/Buttons.o
                0x1000b4ac                get_button_data
 .text.set_LED  0x1000b4d8       0x34 src/LED.o
                0x1000b4d8                set_LED
 .text.setup_LED
                0x1000b50c       0x60 src/LED.o
                0x1000b50c                setup_LED
 .text.m_transfer
                0x1000b56c       0x50 src/LSM9DS1.o
                0x1000b56c                m_transfer
 .text.ag_write
                0x1000b5bc       0x28 src/LSM9DS1.o
                0x1000b5bc                ag_write
 .text.m_write  0x1000b5e4       0x28 src/LSM9DS1.o
                0x1000b5e4                m_write
 .text.ag_read_byte
                0x1000b60c       0x2c src/LSM9DS1.o
                0x1000b60c                ag_read_byte
 .text.ag_read_bytes
                0x1000b638       0x3c src/LSM9DS1.o
                0x1000b638                ag_read_bytes
 .text.m_read_bytes
                0x1000b674       0x44 src/LSM9DS1.o
                0x1000b674                m_read_bytes
 .text.init_accelerometer
                0x1000b6b8       0x1c src/LSM9DS1.o
                0x1000b6b8                init_accelerometer
 .text.get_raw_accelerometer
                0x1000b6d4       0x40 src/LSM9DS1.o
                0x1000b6d4                get_raw_accelerometer
 .text.init_gyroscope
                0x1000b714       0x28 src/LSM9DS1.o
                0x1000b714                init_gyroscope
 .text.get_raw_gyroscope
                0x1000b73c       0x40 src/LSM9DS1.o
                0x1000b73c                get_raw_gyroscope
 .text.init_magnetometer
                0x1000b77c       0x28 src/LSM9DS1.o
                0x1000b77c                init_magnetometer
 .text.get_raw_magnetometer
                0x1000b7a4       0x40 src/LSM9DS1.o
                0x1000b7a4                get_raw_magnetometer
 .text.configure_gpio
                0x1000b7e4       0xb8 src/LSM9DS1.o
                0x1000b7e4                configure_gpio
 .text.time_timer_callback_fn
                0x1000b89c       0x1c src/main_sam_b.o
 .text.ble_paired_app_event
                0x1000b8b8       0x20 src/main_sam_b.o
                0x1000b8b8                ble_paired_app_event
 .text.button_cb
                0x1000b8d8       0x24 src/main_sam_b.o
 .text.ble_timer_callback_fn
                0x1000b8fc       0x14 src/main_sam_b.o
 .text.prepare_send_buffer
                0x1000b910       0xa0 src/main_sam_b.o
                0x1000b910                prepare_send_buffer
 .text.prepare_send_buffer_timer
                0x1000b9b0       0x50 src/main_sam_b.o
                0x1000b9b0                prepare_send_buffer_timer
 .text.startup.main
                0x1000ba00      0x374 src/main_sam_b.o
                0x1000ba00                main
 .text.internal_event_post
                0x1000bd74       0x5c C:\Senior-Design\Cymote\Cymote2\Cymote2\src\ASF\thirdparty\wireless\ble_smart_sdk\lib\cm0\gcc\libblusdk.a(event.o)
                0x1000bd74                internal_event_post
 .text.internal_event_init
                0x1000bdd0       0x2c C:\Senior-Design\Cymote\Cymote2\Cymote2\src\ASF\thirdparty\wireless\ble_smart_sdk\lib\cm0\gcc\libblusdk.a(event.o)
                0x1000bdd0                internal_event_init
 .text.special_events_handler
                0x1000bdfc       0x90 C:\Senior-Design\Cymote\Cymote2\Cymote2\src\ASF\thirdparty\wireless\ble_smart_sdk\lib\cm0\gcc\libblusdk.a(event.o)
                0x1000bdfc                special_events_handler
 .text.at_ble_event_get
                0x1000be8c      0x6d8 C:\Senior-Design\Cymote\Cymote2\Cymote2\src\ASF\thirdparty\wireless\ble_smart_sdk\lib\cm0\gcc\libblusdk.a(event.o)
                0x1000be8c                at_ble_event_get
 .text.internal_event_flush
                0x1000c564       0x44 C:\Senior-Design\Cymote\Cymote2\Cymote2\src\ASF\thirdparty\wireless\ble_smart_sdk\lib\cm0\gcc\libblusdk.a(event.o)
                0x1000c564                internal_event_flush
 .text.internal_conn_flush
                0x1000c5a8       0x54 C:\Senior-Design\Cymote\Cymote2\Cymote2\src\ASF\thirdparty\wireless\ble_smart_sdk\lib\cm0\gcc\libblusdk.a(event.o)
                0x1000c5a8                internal_conn_flush
 .text.at_ble_device_name_set
                0x1000c5fc       0x34 C:\Senior-Design\Cymote\Cymote2\Cymote2\src\ASF\thirdparty\wireless\ble_smart_sdk\lib\cm0\gcc\libblusdk.a(gap.o)
                0x1000c5fc                at_ble_device_name_set
 .text.at_ble_addr_get
                0x1000c630       0x24 C:\Senior-Design\Cymote\Cymote2\Cymote2\src\ASF\thirdparty\wireless\ble_smart_sdk\lib\cm0\gcc\libblusdk.a(gap.o)
                0x1000c630                at_ble_addr_get
 .text.at_ble_set_dev_config
                0x1000c654       0x90 C:\Senior-Design\Cymote\Cymote2\Cymote2\src\ASF\thirdparty\wireless\ble_smart_sdk\lib\cm0\gcc\libblusdk.a(gap.o)
                0x1000c654                at_ble_set_dev_config
 .text.at_ble_init
                0x1000c6e4      0x1b4 C:\Senior-Design\Cymote\Cymote2\Cymote2\src\ASF\thirdparty\wireless\ble_smart_sdk\lib\cm0\gcc\libblusdk.a(gap.o)
                0x1000c6e4                at_ble_init
 .text.at_ble_addr_set
                0x1000c898       0x54 C:\Senior-Design\Cymote\Cymote2\Cymote2\src\ASF\thirdparty\wireless\ble_smart_sdk\lib\cm0\gcc\libblusdk.a(gap.o)
                0x1000c898                at_ble_addr_set
 .text.at_ble_adv_data_set
                0x1000c8ec       0x84 C:\Senior-Design\Cymote\Cymote2\Cymote2\src\ASF\thirdparty\wireless\ble_smart_sdk\lib\cm0\gcc\libblusdk.a(gap.o)
                0x1000c8ec                at_ble_adv_data_set
 .text.at_ble_adv_start
                0x1000c970      0x13c C:\Senior-Design\Cymote\Cymote2\Cymote2\src\ASF\thirdparty\wireless\ble_smart_sdk\lib\cm0\gcc\libblusdk.a(gap.o)
                0x1000c970                at_ble_adv_start
 .text.at_ble_scan_stop
                0x1000caac       0x20 C:\Senior-Design\Cymote\Cymote2\Cymote2\src\ASF\thirdparty\wireless\ble_smart_sdk\lib\cm0\gcc\libblusdk.a(gap.o)
                0x1000caac                at_ble_scan_stop
 .text.at_ble_disconnect
                0x1000cacc       0x20 C:\Senior-Design\Cymote\Cymote2\Cymote2\src\ASF\thirdparty\wireless\ble_smart_sdk\lib\cm0\gcc\libblusdk.a(gap.o)
                0x1000cacc                at_ble_disconnect
 .text.at_ble_conn_update_reply
                0x1000caec        0xc C:\Senior-Design\Cymote\Cymote2\Cymote2\src\ASF\thirdparty\wireless\ble_smart_sdk\lib\cm0\gcc\libblusdk.a(gap.o)
                0x1000caec                at_ble_conn_update_reply
 .text.at_ble_random_address_resolve
                0x1000caf8       0x28 C:\Senior-Design\Cymote\Cymote2\Cymote2\src\ASF\thirdparty\wireless\ble_smart_sdk\lib\cm0\gcc\libblusdk.a(gap.o)
                0x1000caf8                at_ble_random_address_resolve
 .text.at_ble_uuid_type2len
                0x1000cb20       0x14 C:\Senior-Design\Cymote\Cymote2\Cymote2\src\ASF\thirdparty\wireless\ble_smart_sdk\lib\cm0\gcc\libblusdk.a(gap.o)
                0x1000cb20                at_ble_uuid_type2len
 .text.at_ble_uuid_len2type
                0x1000cb34       0x14 C:\Senior-Design\Cymote\Cymote2\Cymote2\src\ASF\thirdparty\wireless\ble_smart_sdk\lib\cm0\gcc\libblusdk.a(gap.o)
                0x1000cb34                at_ble_uuid_len2type
 .text.init_gatt_client_module
                0x1000cb48        0xc C:\Senior-Design\Cymote\Cymote2\Cymote2\src\ASF\thirdparty\wireless\ble_smart_sdk\lib\cm0\gcc\libblusdk.a(gatt_client.o)
                0x1000cb48                init_gatt_client_module
 .text.db_searchATT
                0x1000cb54       0x40 C:\Senior-Design\Cymote\Cymote2\Cymote2\src\ASF\thirdparty\wireless\ble_smart_sdk\lib\cm0\gcc\libblusdk.a(gatt_server.o)
 .text.att_permissions
                0x1000cb94       0x58 C:\Senior-Design\Cymote\Cymote2\Cymote2\src\ASF\thirdparty\wireless\ble_smart_sdk\lib\cm0\gcc\libblusdk.a(gatt_server.o)
 .text.char_permissions
                0x1000cbec       0x9c C:\Senior-Design\Cymote\Cymote2\Cymote2\src\ASF\thirdparty\wireless\ble_smart_sdk\lib\cm0\gcc\libblusdk.a(gatt_server.o)
 .text.presentation_format_define
                0x1000cc88       0x2c C:\Senior-Design\Cymote\Cymote2\Cymote2\src\ASF\thirdparty\wireless\ble_smart_sdk\lib\cm0\gcc\libblusdk.a(gatt_server.o)
 .text.db_addATT
                0x1000ccb4       0xb8 C:\Senior-Design\Cymote\Cymote2\Cymote2\src\ASF\thirdparty\wireless\ble_smart_sdk\lib\cm0\gcc\libblusdk.a(gatt_server.o)
 .text.user_description_define
                0x1000cd6c       0x50 C:\Senior-Design\Cymote\Cymote2\Cymote2\src\ASF\thirdparty\wireless\ble_smart_sdk\lib\cm0\gcc\libblusdk.a(gatt_server.o)
 .text.at_ble_read_authorize_reply.part.1
                0x1000cdbc       0x30 C:\Senior-Design\Cymote\Cymote2\Cymote2\src\ASF\thirdparty\wireless\ble_smart_sdk\lib\cm0\gcc\libblusdk.a(gatt_server.o)
 .text.initi_gatt_server_module
                0x1000cdec       0x3c C:\Senior-Design\Cymote\Cymote2\Cymote2\src\ASF\thirdparty\wireless\ble_smart_sdk\lib\cm0\gcc\libblusdk.a(gatt_server.o)
                0x1000cdec                initi_gatt_server_module
 .text.db_init  0x1000ce28       0x44 C:\Senior-Design\Cymote\Cymote2\Cymote2\src\ASF\thirdparty\wireless\ble_smart_sdk\lib\cm0\gcc\libblusdk.a(gatt_server.o)
                0x1000ce28                db_init
 .text.at_ble_service_define
                0x1000ce6c      0x4d0 C:\Senior-Design\Cymote\Cymote2\Cymote2\src\ASF\thirdparty\wireless\ble_smart_sdk\lib\cm0\gcc\libblusdk.a(gatt_server.o)
                0x1000ce6c                at_ble_service_define
 .text.at_ble_characteristic_value_set
                0x1000d33c       0x3c C:\Senior-Design\Cymote\Cymote2\Cymote2\src\ASF\thirdparty\wireless\ble_smart_sdk\lib\cm0\gcc\libblusdk.a(gatt_server.o)
                0x1000d33c                at_ble_characteristic_value_set
 .text.at_ble_characteristic_value_get
                0x1000d378       0x40 C:\Senior-Design\Cymote\Cymote2\Cymote2\src\ASF\thirdparty\wireless\ble_smart_sdk\lib\cm0\gcc\libblusdk.a(gatt_server.o)
                0x1000d378                at_ble_characteristic_value_get
 .text.at_ble_write_authorize_reply
                0x1000d3b8       0x88 C:\Senior-Design\Cymote\Cymote2\Cymote2\src\ASF\thirdparty\wireless\ble_smart_sdk\lib\cm0\gcc\libblusdk.a(gatt_server.o)
                0x1000d3b8                at_ble_write_authorize_reply
 .text.gatts_handle_read_req
                0x1000d440       0x30 C:\Senior-Design\Cymote\Cymote2\Cymote2\src\ASF\thirdparty\wireless\ble_smart_sdk\lib\cm0\gcc\libblusdk.a(gatt_server.o)
                0x1000d440                gatts_handle_read_req
 .text.gatts_handle_att_info_req
                0x1000d470       0x3c C:\Senior-Design\Cymote\Cymote2\Cymote2\src\ASF\thirdparty\wireless\ble_smart_sdk\lib\cm0\gcc\libblusdk.a(gatt_server.o)
                0x1000d470                gatts_handle_att_info_req
 .text.gatts_handle_write_req
                0x1000d4ac       0x30 C:\Senior-Design\Cymote\Cymote2\Cymote2\src\ASF\thirdparty\wireless\ble_smart_sdk\lib\cm0\gcc\libblusdk.a(gatt_server.o)
                0x1000d4ac                gatts_handle_write_req
 .text.init_l2cc_task_module
                0x1000d4dc        0xc C:\Senior-Design\Cymote\Cymote2\Cymote2\src\ASF\thirdparty\wireless\ble_smart_sdk\lib\cm0\gcc\libblusdk.a(l2cc_task.o)
                0x1000d4dc                init_l2cc_task_module
 .text.l2cc_data_send_rsp_handler
                0x1000d4e8       0x2c C:\Senior-Design\Cymote\Cymote2\Cymote2\src\ASF\thirdparty\wireless\ble_smart_sdk\lib\cm0\gcc\libblusdk.a(l2cc_task.o)
                0x1000d4e8                l2cc_data_send_rsp_handler
 .text.l2cc_data_received_handler
                0x1000d514       0x30 C:\Senior-Design\Cymote\Cymote2\Cymote2\src\ASF\thirdparty\wireless\ble_smart_sdk\lib\cm0\gcc\libblusdk.a(l2cc_task.o)
                0x1000d514                l2cc_data_received_handler
 .text.at_ble_authenticate
                0x1000d544      0x130 C:\Senior-Design\Cymote\Cymote2\Cymote2\src\ASF\thirdparty\wireless\ble_smart_sdk\lib\cm0\gcc\libblusdk.a(security.o)
                0x1000d544                at_ble_authenticate
 .text.at_ble_pair_key_reply
                0x1000d674       0x7c C:\Senior-Design\Cymote\Cymote2\Cymote2\src\ASF\thirdparty\wireless\ble_smart_sdk\lib\cm0\gcc\libblusdk.a(security.o)
                0x1000d674                at_ble_pair_key_reply
 .text.at_ble_encryption_start
                0x1000d6f0       0x78 C:\Senior-Design\Cymote\Cymote2\Cymote2\src\ASF\thirdparty\wireless\ble_smart_sdk\lib\cm0\gcc\libblusdk.a(security.o)
                0x1000d6f0                at_ble_encryption_start
 .text.at_ble_encryption_request_reply
                0x1000d768       0x34 C:\Senior-Design\Cymote\Cymote2\Cymote2\src\ASF\thirdparty\wireless\ble_smart_sdk\lib\cm0\gcc\libblusdk.a(security.o)
                0x1000d768                at_ble_encryption_request_reply
 .text.rx_callback
                0x1000d79c       0x98 C:\Senior-Design\Cymote\Cymote2\Cymote2\src\ASF\thirdparty\wireless\ble_smart_sdk\lib\cm0\gcc\libblusdk.a(interface.o)
                0x1000d79c                rx_callback
 .text.interface_send
                0x1000d834       0x10 C:\Senior-Design\Cymote\Cymote2\Cymote2\src\ASF\thirdparty\wireless\ble_smart_sdk\lib\cm0\gcc\libblusdk.a(interface.o)
                0x1000d834                interface_send
 .text.interface_init
                0x1000d844       0x48 C:\Senior-Design\Cymote\Cymote2\Cymote2\src\ASF\thirdparty\wireless\ble_smart_sdk\lib\cm0\gcc\libblusdk.a(interface.o)
                0x1000d844                interface_init
 .text.platform_cmd_cmpl_signal
                0x1000d88c        0xc C:\Senior-Design\Cymote\Cymote2\Cymote2\src\ASF\thirdparty\wireless\ble_smart_sdk\lib\cm0\gcc\libblusdk.a(interface.o)
                0x1000d88c                platform_cmd_cmpl_signal
 .text.platform_cmd_cmpl_wait
                0x1000d898       0x2c C:\Senior-Design\Cymote\Cymote2\Cymote2\src\ASF\thirdparty\wireless\ble_smart_sdk\lib\cm0\gcc\libblusdk.a(interface.o)
                0x1000d898                platform_cmd_cmpl_wait
 .text.start_timer
                0x1000d8c4        0x2 C:\Senior-Design\Cymote\Cymote2\Cymote2\src\ASF\thirdparty\wireless\ble_smart_sdk\lib\cm0\gcc\libblusdk.a(interface.o)
                0x1000d8c4                start_timer
 .text.stop_timer
                0x1000d8c6        0x2 C:\Senior-Design\Cymote\Cymote2\Cymote2\src\ASF\thirdparty\wireless\ble_smart_sdk\lib\cm0\gcc\libblusdk.a(interface.o)
                0x1000d8c6                stop_timer
 .text.dbg_le_set_bd_addr_req_handler
                0x1000d8c8       0x7c C:\Senior-Design\Cymote\Cymote2\Cymote2\src\ASF\thirdparty\wireless\ble_smart_sdk\lib\cm0\gcc\libblusdk.a(dbg_task.o)
                0x1000d8c8                dbg_le_set_bd_addr_req_handler
 .text.gapc_get_dev_info_cfm.constprop.1
                0x1000d944       0xc0 C:\Senior-Design\Cymote\Cymote2\Cymote2\src\ASF\thirdparty\wireless\ble_smart_sdk\lib\cm0\gcc\libblusdk.a(gapc_task.o)
 .text.check_ConnData_idx_role
                0x1000da04       0x3c C:\Senior-Design\Cymote\Cymote2\Cymote2\src\ASF\thirdparty\wireless\ble_smart_sdk\lib\cm0\gcc\libblusdk.a(gapc_task.o)
                0x1000da04                check_ConnData_idx_role
 .text.check_ConnData_emptyEntry
                0x1000da40       0x28 C:\Senior-Design\Cymote\Cymote2\Cymote2\src\ASF\thirdparty\wireless\ble_smart_sdk\lib\cm0\gcc\libblusdk.a(gapc_task.o)
                0x1000da40                check_ConnData_emptyEntry
 .text.gapc_cmp_evt
                0x1000da68       0xd0 C:\Senior-Design\Cymote\Cymote2\Cymote2\src\ASF\thirdparty\wireless\ble_smart_sdk\lib\cm0\gcc\libblusdk.a(gapc_task.o)
                0x1000da68                gapc_cmp_evt
 .text.gapc_connection_cfm_handler
                0x1000db38       0xc4 C:\Senior-Design\Cymote\Cymote2\Cymote2\src\ASF\thirdparty\wireless\ble_smart_sdk\lib\cm0\gcc\libblusdk.a(gapc_task.o)
                0x1000db38                gapc_connection_cfm_handler
 .text.gapc_con_req_ind
                0x1000dbfc       0xe0 C:\Senior-Design\Cymote\Cymote2\Cymote2\src\ASF\thirdparty\wireless\ble_smart_sdk\lib\cm0\gcc\libblusdk.a(gapc_task.o)
                0x1000dbfc                gapc_con_req_ind
 .text.gapc_disconnect_cmd_handler
                0x1000dcdc       0x44 C:\Senior-Design\Cymote\Cymote2\Cymote2\src\ASF\thirdparty\wireless\ble_smart_sdk\lib\cm0\gcc\libblusdk.a(gapc_task.o)
                0x1000dcdc                gapc_disconnect_cmd_handler
 .text.gapc_disconnect_ind
                0x1000dd20       0x34 C:\Senior-Design\Cymote\Cymote2\Cymote2\src\ASF\thirdparty\wireless\ble_smart_sdk\lib\cm0\gcc\libblusdk.a(gapc_task.o)
                0x1000dd20                gapc_disconnect_ind
 .text.gapc_bond_cmd_handler
                0x1000dd54       0x68 C:\Senior-Design\Cymote\Cymote2\Cymote2\src\ASF\thirdparty\wireless\ble_smart_sdk\lib\cm0\gcc\libblusdk.a(gapc_task.o)
                0x1000dd54                gapc_bond_cmd_handler
 .text.gapc_bond_ind
                0x1000ddbc       0xd8 C:\Senior-Design\Cymote\Cymote2\Cymote2\src\ASF\thirdparty\wireless\ble_smart_sdk\lib\cm0\gcc\libblusdk.a(gapc_task.o)
                0x1000ddbc                gapc_bond_ind
 .text.gapc_bond_req_ind
                0x1000de94       0xe0 C:\Senior-Design\Cymote\Cymote2\Cymote2\src\ASF\thirdparty\wireless\ble_smart_sdk\lib\cm0\gcc\libblusdk.a(gapc_task.o)
                0x1000de94                gapc_bond_req_ind
 .text.gapc_bond_cfm_handler_pair_resp
                0x1000df74       0x7c C:\Senior-Design\Cymote\Cymote2\Cymote2\src\ASF\thirdparty\wireless\ble_smart_sdk\lib\cm0\gcc\libblusdk.a(gapc_task.o)
                0x1000df74                gapc_bond_cfm_handler_pair_resp
 .text.gapc_bond_cfm_handler_key_exch
                0x1000dff0       0x50 C:\Senior-Design\Cymote\Cymote2\Cymote2\src\ASF\thirdparty\wireless\ble_smart_sdk\lib\cm0\gcc\libblusdk.a(gapc_task.o)
                0x1000dff0                gapc_bond_cfm_handler_key_exch
 .text.gapc_encrypt_cmd_handler
                0x1000e040       0x9c C:\Senior-Design\Cymote\Cymote2\Cymote2\src\ASF\thirdparty\wireless\ble_smart_sdk\lib\cm0\gcc\libblusdk.a(gapc_task.o)
                0x1000e040                gapc_encrypt_cmd_handler
 .text.gapc_encrypt_req_ind
                0x1000e0dc       0x20 C:\Senior-Design\Cymote\Cymote2\Cymote2\src\ASF\thirdparty\wireless\ble_smart_sdk\lib\cm0\gcc\libblusdk.a(gapc_task.o)
                0x1000e0dc                gapc_encrypt_req_ind
 .text.gapc_encrypt_cfm_handler
                0x1000e0fc       0x80 C:\Senior-Design\Cymote\Cymote2\Cymote2\src\ASF\thirdparty\wireless\ble_smart_sdk\lib\cm0\gcc\libblusdk.a(gapc_task.o)
                0x1000e0fc                gapc_encrypt_cfm_handler
 .text.gapc_encrypt_ind
                0x1000e17c        0xe C:\Senior-Design\Cymote\Cymote2\Cymote2\src\ASF\thirdparty\wireless\ble_smart_sdk\lib\cm0\gcc\libblusdk.a(gapc_task.o)
                0x1000e17c                gapc_encrypt_ind
 *fill*         0x1000e18a        0x2 
 .text.gapc_param_update_cfm_handler
                0x1000e18c       0x4c C:\Senior-Design\Cymote\Cymote2\Cymote2\src\ASF\thirdparty\wireless\ble_smart_sdk\lib\cm0\gcc\libblusdk.a(gapc_task.o)
                0x1000e18c                gapc_param_update_cfm_handler
 .text.gapc_param_updated_ind
                0x1000e1d8       0x2a C:\Senior-Design\Cymote\Cymote2\Cymote2\src\ASF\thirdparty\wireless\ble_smart_sdk\lib\cm0\gcc\libblusdk.a(gapc_task.o)
                0x1000e1d8                gapc_param_updated_ind
 .text.gapc_param_updated_req_ind
                0x1000e202       0x30 C:\Senior-Design\Cymote\Cymote2\Cymote2\src\ASF\thirdparty\wireless\ble_smart_sdk\lib\cm0\gcc\libblusdk.a(gapc_task.o)
                0x1000e202                gapc_param_updated_req_ind
 *fill*         0x1000e232        0x2 
 .text.gapc_dev_info_req_ind_handler
                0x1000e234       0x28 C:\Senior-Design\Cymote\Cymote2\Cymote2\src\ASF\thirdparty\wireless\ble_smart_sdk\lib\cm0\gcc\libblusdk.a(gapc_task.o)
                0x1000e234                gapc_dev_info_req_ind_handler
 .text.gapc_sec_req_ind
                0x1000e25c       0x16 C:\Senior-Design\Cymote\Cymote2\Cymote2\src\ASF\thirdparty\wireless\ble_smart_sdk\lib\cm0\gcc\libblusdk.a(gapc_task.o)
                0x1000e25c                gapc_sec_req_ind
 .text.gapc_sign_counter_ind_handler
                0x1000e272       0x34 C:\Senior-Design\Cymote\Cymote2\Cymote2\src\ASF\thirdparty\wireless\ble_smart_sdk\lib\cm0\gcc\libblusdk.a(gapc_task.o)
                0x1000e272                gapc_sign_counter_ind_handler
 *fill*         0x1000e2a6        0x2 
 .text.gapc_peer_att_info_ind_handler
                0x1000e2a8       0x7c C:\Senior-Design\Cymote\Cymote2\Cymote2\src\ASF\thirdparty\wireless\ble_smart_sdk\lib\cm0\gcc\libblusdk.a(gapc_task.o)
                0x1000e2a8                gapc_peer_att_info_ind_handler
 .text.gapc_con_channel_map_ind_handler
                0x1000e324       0x18 C:\Senior-Design\Cymote\Cymote2\Cymote2\src\ASF\thirdparty\wireless\ble_smart_sdk\lib\cm0\gcc\libblusdk.a(gapc_task.o)
                0x1000e324                gapc_con_channel_map_ind_handler
 .text.gapc_lecb_connected
                0x1000e33c       0x2e C:\Senior-Design\Cymote\Cymote2\Cymote2\src\ASF\thirdparty\wireless\ble_smart_sdk\lib\cm0\gcc\libblusdk.a(gapc_task.o)
                0x1000e33c                gapc_lecb_connected
 .text.gapc_lecb_disconnected
                0x1000e36a       0x16 C:\Senior-Design\Cymote\Cymote2\Cymote2\src\ASF\thirdparty\wireless\ble_smart_sdk\lib\cm0\gcc\libblusdk.a(gapc_task.o)
                0x1000e36a                gapc_lecb_disconnected
 .text.gapc_lecb_connect_req_ind
                0x1000e380       0x2a C:\Senior-Design\Cymote\Cymote2\Cymote2\src\ASF\thirdparty\wireless\ble_smart_sdk\lib\cm0\gcc\libblusdk.a(gapc_task.o)
                0x1000e380                gapc_lecb_connect_req_ind
 .text.gapc_lecb_add_credit_resp_handler
                0x1000e3aa       0x20 C:\Senior-Design\Cymote\Cymote2\Cymote2\src\ASF\thirdparty\wireless\ble_smart_sdk\lib\cm0\gcc\libblusdk.a(gapc_task.o)
                0x1000e3aa                gapc_lecb_add_credit_resp_handler
 *fill*         0x1000e3ca        0x2 
 .text.gapm_reset_req_handler
                0x1000e3cc       0x70 C:\Senior-Design\Cymote\Cymote2\Cymote2\src\ASF\thirdparty\wireless\ble_smart_sdk\lib\cm0\gcc\libblusdk.a(gapm_task.o)
                0x1000e3cc                gapm_reset_req_handler
 .text.gapm_set_dev_config_cmd_handler
                0x1000e43c      0x108 C:\Senior-Design\Cymote\Cymote2\Cymote2\src\ASF\thirdparty\wireless\ble_smart_sdk\lib\cm0\gcc\libblusdk.a(gapm_task.o)
                0x1000e43c                gapm_set_dev_config_cmd_handler
 .text.gapm_get_dev_config_cmd_handler
                0x1000e544       0xe0 C:\Senior-Design\Cymote\Cymote2\Cymote2\src\ASF\thirdparty\wireless\ble_smart_sdk\lib\cm0\gcc\libblusdk.a(gapm_task.o)
                0x1000e544                gapm_get_dev_config_cmd_handler
 .text.gapm_cancel_cmd_handler
                0x1000e624       0x70 C:\Senior-Design\Cymote\Cymote2\Cymote2\src\ASF\thirdparty\wireless\ble_smart_sdk\lib\cm0\gcc\libblusdk.a(gapm_task.o)
                0x1000e624                gapm_cancel_cmd_handler
 .text.gapm_dev_bdaddr_ind_handler
                0x1000e694       0x1c C:\Senior-Design\Cymote\Cymote2\Cymote2\src\ASF\thirdparty\wireless\ble_smart_sdk\lib\cm0\gcc\libblusdk.a(gapm_task.o)
                0x1000e694                gapm_dev_bdaddr_ind_handler
 .text.gapm_cmp_evt
                0x1000e6b0      0x148 C:\Senior-Design\Cymote\Cymote2\Cymote2\src\ASF\thirdparty\wireless\ble_smart_sdk\lib\cm0\gcc\libblusdk.a(gapm_task.o)
                0x1000e6b0                gapm_cmp_evt
 .text.gapm_start_adv_cmd_handler
                0x1000e7f8      0x120 C:\Senior-Design\Cymote\Cymote2\Cymote2\src\ASF\thirdparty\wireless\ble_smart_sdk\lib\cm0\gcc\libblusdk.a(gapm_task.o)
                0x1000e7f8                gapm_start_adv_cmd_handler
 .text.get_gap_local_addr_type
                0x1000e918       0x18 C:\Senior-Design\Cymote\Cymote2\Cymote2\src\ASF\thirdparty\wireless\ble_smart_sdk\lib\cm0\gcc\libblusdk.a(gapm_task.o)
                0x1000e918                get_gap_local_addr_type
 .text.gapm_adv_report_evt_handler
                0x1000e930       0x88 C:\Senior-Design\Cymote\Cymote2\Cymote2\src\ASF\thirdparty\wireless\ble_smart_sdk\lib\cm0\gcc\libblusdk.a(gapm_task.o)
                0x1000e930                gapm_adv_report_evt_handler
 .text.gapm_resolv_addr_cmd_handler
                0x1000e9b8       0x68 C:\Senior-Design\Cymote\Cymote2\Cymote2\src\ASF\thirdparty\wireless\ble_smart_sdk\lib\cm0\gcc\libblusdk.a(gapm_task.o)
                0x1000e9b8                gapm_resolv_addr_cmd_handler
 .text.gapm_addr_solved_ind_handler
                0x1000ea20       0x24 C:\Senior-Design\Cymote\Cymote2\Cymote2\src\ASF\thirdparty\wireless\ble_smart_sdk\lib\cm0\gcc\libblusdk.a(gapm_task.o)
                0x1000ea20                gapm_addr_solved_ind_handler
 .text.gapm_profile_added_ind_handler
                0x1000ea44       0x20 C:\Senior-Design\Cymote\Cymote2\Cymote2\src\ASF\thirdparty\wireless\ble_smart_sdk\lib\cm0\gcc\libblusdk.a(gapm_task.o)
                0x1000ea44                gapm_profile_added_ind_handler
 .text.gattc_read_req_ind_parser
                0x1000ea64        0xc C:\Senior-Design\Cymote\Cymote2\Cymote2\src\ASF\thirdparty\wireless\ble_smart_sdk\lib\cm0\gcc\libblusdk.a(gattc_task.o)
                0x1000ea64                gattc_read_req_ind_parser
 .text.gattc_write_req_ind_parser
                0x1000ea70       0x38 C:\Senior-Design\Cymote\Cymote2\Cymote2\src\ASF\thirdparty\wireless\ble_smart_sdk\lib\cm0\gcc\libblusdk.a(gattc_task.o)
                0x1000ea70                gattc_write_req_ind_parser
 .text.gattc_att_info_req_parser
                0x1000eaa8        0xc C:\Senior-Design\Cymote\Cymote2\Cymote2\src\ASF\thirdparty\wireless\ble_smart_sdk\lib\cm0\gcc\libblusdk.a(gattc_task.o)
                0x1000eaa8                gattc_att_info_req_parser
 .text.gattc_read_cfm
                0x1000eab4       0x6c C:\Senior-Design\Cymote\Cymote2\Cymote2\src\ASF\thirdparty\wireless\ble_smart_sdk\lib\cm0\gcc\libblusdk.a(gattc_task.o)
                0x1000eab4                gattc_read_cfm
 .text.gattc_write_cfm
                0x1000eb20       0x44 C:\Senior-Design\Cymote\Cymote2\Cymote2\src\ASF\thirdparty\wireless\ble_smart_sdk\lib\cm0\gcc\libblusdk.a(gattc_task.o)
                0x1000eb20                gattc_write_cfm
 .text.gattc_att_info_cfm
                0x1000eb64       0x48 C:\Senior-Design\Cymote\Cymote2\Cymote2\src\ASF\thirdparty\wireless\ble_smart_sdk\lib\cm0\gcc\libblusdk.a(gattc_task.o)
                0x1000eb64                gattc_att_info_cfm
 .text.gattc_event_cfm_handler
                0x1000ebac       0x40 C:\Senior-Design\Cymote\Cymote2\Cymote2\src\ASF\thirdparty\wireless\ble_smart_sdk\lib\cm0\gcc\libblusdk.a(gattc_task.o)
                0x1000ebac                gattc_event_cfm_handler
 .text.gattc_disc_svc_ind_parser
                0x1000ebec       0x3c C:\Senior-Design\Cymote\Cymote2\Cymote2\src\ASF\thirdparty\wireless\ble_smart_sdk\lib\cm0\gcc\libblusdk.a(gattc_task.o)
                0x1000ebec                gattc_disc_svc_ind_parser
 .text.gattc_disc_svc_incl_ind_parser
                0x1000ec28       0x48 C:\Senior-Design\Cymote\Cymote2\Cymote2\src\ASF\thirdparty\wireless\ble_smart_sdk\lib\cm0\gcc\libblusdk.a(gattc_task.o)
                0x1000ec28                gattc_disc_svc_incl_ind_parser
 .text.gattc_disc_char_ind_parser
                0x1000ec70       0x44 C:\Senior-Design\Cymote\Cymote2\Cymote2\src\ASF\thirdparty\wireless\ble_smart_sdk\lib\cm0\gcc\libblusdk.a(gattc_task.o)
                0x1000ec70                gattc_disc_char_ind_parser
 .text.gattc_disc_char_desc_ind_parser
                0x1000ecb4       0x34 C:\Senior-Design\Cymote\Cymote2\Cymote2\src\ASF\thirdparty\wireless\ble_smart_sdk\lib\cm0\gcc\libblusdk.a(gattc_task.o)
                0x1000ecb4                gattc_disc_char_desc_ind_parser
 .text.gattc_event_ind_and_notification_parser
                0x1000ece8       0x54 C:\Senior-Design\Cymote\Cymote2\Cymote2\src\ASF\thirdparty\wireless\ble_smart_sdk\lib\cm0\gcc\libblusdk.a(gattc_task.o)
                0x1000ece8                gattc_event_ind_and_notification_parser
 .text.gattc_complete_evt_handler
                0x1000ed3c       0x78 C:\Senior-Design\Cymote\Cymote2\Cymote2\src\ASF\thirdparty\wireless\ble_smart_sdk\lib\cm0\gcc\libblusdk.a(gattc_task.o)
                0x1000ed3c                gattc_complete_evt_handler
 .text.gattc_event_mtu_changed_ind_parser
                0x1000edb4       0x10 C:\Senior-Design\Cymote\Cymote2\Cymote2\src\ASF\thirdparty\wireless\ble_smart_sdk\lib\cm0\gcc\libblusdk.a(gattc_task.o)
                0x1000edb4                gattc_event_mtu_changed_ind_parser
 .text.gattc_read_ind_parser
                0x1000edc4       0x40 C:\Senior-Design\Cymote\Cymote2\Cymote2\src\ASF\thirdparty\wireless\ble_smart_sdk\lib\cm0\gcc\libblusdk.a(gattc_task.o)
                0x1000edc4                gattc_read_ind_parser
 .text.gattc_svc_changed_cfg_ind_parser
                0x1000ee04       0x10 C:\Senior-Design\Cymote\Cymote2\Cymote2\src\ASF\thirdparty\wireless\ble_smart_sdk\lib\cm0\gcc\libblusdk.a(gattc_task.o)
                0x1000ee04                gattc_svc_changed_cfg_ind_parser
 .text.init_gattc_task_module
                0x1000ee14       0x14 C:\Senior-Design\Cymote\Cymote2\Cymote2\src\ASF\thirdparty\wireless\ble_smart_sdk\lib\cm0\gcc\libblusdk.a(gattc_task.o)
                0x1000ee14                init_gattc_task_module
 .text.gattm_add_svc_req_handler
                0x1000ee28      0x10c C:\Senior-Design\Cymote\Cymote2\Cymote2\src\ASF\thirdparty\wireless\ble_smart_sdk\lib\cm0\gcc\libblusdk.a(gattm_task.o)
                0x1000ee28                gattm_add_svc_req_handler
 .text.gattm_add_attribute_req_handler
                0x1000ef34       0x70 C:\Senior-Design\Cymote\Cymote2\Cymote2\src\ASF\thirdparty\wireless\ble_smart_sdk\lib\cm0\gcc\libblusdk.a(gattm_task.o)
                0x1000ef34                gattm_add_attribute_req_handler
 .text.gattm_att_set_value_req_handler
                0x1000efa4       0x8c C:\Senior-Design\Cymote\Cymote2\Cymote2\src\ASF\thirdparty\wireless\ble_smart_sdk\lib\cm0\gcc\libblusdk.a(gattm_task.o)
                0x1000efa4                gattm_att_set_value_req_handler
 .text.gattm_att_get_value_req_handler
                0x1000f030       0x9c C:\Senior-Design\Cymote\Cymote2\Cymote2\src\ASF\thirdparty\wireless\ble_smart_sdk\lib\cm0\gcc\libblusdk.a(gattm_task.o)
                0x1000f030                gattm_att_get_value_req_handler
 .text.htpt_enable_rsp_handler
                0x1000f0cc        0xa C:\Senior-Design\Cymote\Cymote2\Cymote2\src\ASF\thirdparty\wireless\ble_smart_sdk\lib\cm0\gcc\libblusdk.a(htpt_task.o)
                0x1000f0cc                htpt_enable_rsp_handler
 .text.htpt_temp_send_rsp_handler
                0x1000f0d6        0x6 C:\Senior-Design\Cymote\Cymote2\Cymote2\src\ASF\thirdparty\wireless\ble_smart_sdk\lib\cm0\gcc\libblusdk.a(htpt_task.o)
                0x1000f0d6                htpt_temp_send_rsp_handler
 .text.htpt_meas_intv_upd_rsp_handler
                0x1000f0dc        0x6 C:\Senior-Design\Cymote\Cymote2\Cymote2\src\ASF\thirdparty\wireless\ble_smart_sdk\lib\cm0\gcc\libblusdk.a(htpt_task.o)
                0x1000f0dc                htpt_meas_intv_upd_rsp_handler
 .text.htpt_meas_intv_chg_req_ind_handler
                0x1000f0e2        0xc C:\Senior-Design\Cymote\Cymote2\Cymote2\src\ASF\thirdparty\wireless\ble_smart_sdk\lib\cm0\gcc\libblusdk.a(htpt_task.o)
                0x1000f0e2                htpt_meas_intv_chg_req_ind_handler
 .text.htpt_cfg_indntf_ind_handler
                0x1000f0ee        0xa C:\Senior-Design\Cymote\Cymote2\Cymote2\src\ASF\thirdparty\wireless\ble_smart_sdk\lib\cm0\gcc\libblusdk.a(htpt_task.o)
                0x1000f0ee                htpt_cfg_indntf_ind_handler
 .text          0x1000f0f8       0x14 c:/program files (x86)/atmel/studio/7.0/toolchain/arm/arm-gnu-toolchain/bin/../lib/gcc/arm-none-eabi/5.3.1/armv6-m\libgcc.a(_thumb1_case_sqi.o)
                0x1000f0f8                __gnu_thumb1_case_sqi
 .text          0x1000f10c       0x14 c:/program files (x86)/atmel/studio/7.0/toolchain/arm/arm-gnu-toolchain/bin/../lib/gcc/arm-none-eabi/5.3.1/armv6-m\libgcc.a(_thumb1_case_uqi.o)
                0x1000f10c                __gnu_thumb1_case_uqi
 .text          0x1000f120       0x14 c:/program files (x86)/atmel/studio/7.0/toolchain/arm/arm-gnu-toolchain/bin/../lib/gcc/arm-none-eabi/5.3.1/armv6-m\libgcc.a(_thumb1_case_uhi.o)
                0x1000f120                __gnu_thumb1_case_uhi
 .text          0x1000f134      0x114 c:/program files (x86)/atmel/studio/7.0/toolchain/arm/arm-gnu-toolchain/bin/../lib/gcc/arm-none-eabi/5.3.1/armv6-m\libgcc.a(_udivsi3.o)
                0x1000f134                __aeabi_uidiv
                0x1000f134                __udivsi3
                0x1000f240                __aeabi_uidivmod
 .text          0x1000f248        0x4 c:/program files (x86)/atmel/studio/7.0/toolchain/arm/arm-gnu-toolchain/bin/../lib/gcc/arm-none-eabi/5.3.1/armv6-m\libgcc.a(_dvmd_tls.o)
                0x1000f248                __aeabi_idiv0
                0x1000f248                __aeabi_ldiv0
 .text          0x1000f24c       0x3c c:/program files (x86)/atmel/studio/7.0/toolchain/arm/arm-gnu-toolchain/bin/../lib/gcc/arm-none-eabi/5.3.1/armv6-m\libgcc.a(_fixunsdfsi.o)
                0x1000f24c                __aeabi_d2uiz
                0x1000f24c                __fixunsdfsi
 .text          0x1000f288      0x4f4 c:/program files (x86)/atmel/studio/7.0/toolchain/arm/arm-gnu-toolchain/bin/../lib/gcc/arm-none-eabi/5.3.1/armv6-m\libgcc.a(muldf3.o)
                0x1000f288                __aeabi_dmul
 .text          0x1000f77c      0x6a8 c:/program files (x86)/atmel/studio/7.0/toolchain/arm/arm-gnu-toolchain/bin/../lib/gcc/arm-none-eabi/5.3.1/armv6-m\libgcc.a(subdf3.o)
                0x1000f77c                __aeabi_dsub
 .text          0x1000fe24       0x6c c:/program files (x86)/atmel/studio/7.0/toolchain/arm/arm-gnu-toolchain/bin/../lib/gcc/arm-none-eabi/5.3.1/armv6-m\libgcc.a(fixdfsi.o)
                0x1000fe24                __aeabi_d2iz
 .text          0x1000fe90       0x70 c:/program files (x86)/atmel/studio/7.0/toolchain/arm/arm-gnu-toolchain/bin/../lib/gcc/arm-none-eabi/5.3.1/armv6-m\libgcc.a(floatunsidf.o)
                0x1000fe90                __aeabi_ui2d
 .text          0x1000ff00       0x7c c:/program files (x86)/atmel/studio/7.0/toolchain/arm/arm-gnu-toolchain/bin/../lib/gcc/arm-none-eabi/5.3.1/armv6-m\libgcc.a(_arm_cmpdf2.o)
                0x1000ff00                __aeabi_cdrcmple
                0x1000ff10                __aeabi_cdcmple
                0x1000ff10                __aeabi_cdcmpeq
                0x1000ff20                __aeabi_dcmpeq
                0x1000ff2c                __aeabi_dcmplt
                0x1000ff40                __aeabi_dcmple
                0x1000ff54                __aeabi_dcmpgt
                0x1000ff68                __aeabi_dcmpge
 .text          0x1000ff7c       0x3c c:/program files (x86)/atmel/studio/7.0/toolchain/arm/arm-gnu-toolchain/bin/../lib/gcc/arm-none-eabi/5.3.1/armv6-m\libgcc.a(_clzsi2.o)
                0x1000ff7c                __clzsi2
 .text          0x1000ffb8       0x80 c:/program files (x86)/atmel/studio/7.0/toolchain/arm/arm-gnu-toolchain/bin/../lib/gcc/arm-none-eabi/5.3.1/armv6-m\libgcc.a(eqdf2.o)
                0x1000ffb8                __nedf2
                0x1000ffb8                __eqdf2
 .text          0x10010038       0xc8 c:/program files (x86)/atmel/studio/7.0/toolchain/arm/arm-gnu-toolchain/bin/../lib/gcc/arm-none-eabi/5.3.1/armv6-m\libgcc.a(gedf2.o)
                0x10010038                __gedf2
                0x10010038                __gtdf2
 .text          0x10010100       0xd4 c:/program files (x86)/atmel/studio/7.0/toolchain/arm/arm-gnu-toolchain/bin/../lib/gcc/arm-none-eabi/5.3.1/armv6-m\libgcc.a(ledf2.o)
                0x10010100                __ledf2
                0x10010100                __ltdf2
 .text.__sflush_r
                0x100101d4      0x10c c:/program files (x86)/atmel/studio/7.0/toolchain/arm/arm-gnu-toolchain/bin/../lib/gcc/arm-none-eabi/5.3.1/../../../../arm-none-eabi/lib/armv6-m\libc_nano.a(lib_a-fflush.o)
                0x100101d4                __sflush_r
 .text._fflush_r
                0x100102e0       0x58 c:/program files (x86)/atmel/studio/7.0/toolchain/arm/arm-gnu-toolchain/bin/../lib/gcc/arm-none-eabi/5.3.1/../../../../arm-none-eabi/lib/armv6-m\libc_nano.a(lib_a-fflush.o)
                0x100102e0                _fflush_r
 .text.fflush   0x10010338       0x28 c:/program files (x86)/atmel/studio/7.0/toolchain/arm/arm-gnu-toolchain/bin/../lib/gcc/arm-none-eabi/5.3.1/../../../../arm-none-eabi/lib/armv6-m\libc_nano.a(lib_a-fflush.o)
                0x10010338                fflush
 .text._cleanup_r
                0x10010360       0x10 c:/program files (x86)/atmel/studio/7.0/toolchain/arm/arm-gnu-toolchain/bin/../lib/gcc/arm-none-eabi/5.3.1/../../../../arm-none-eabi/lib/armv6-m\libc_nano.a(lib_a-findfp.o)
                0x10010360                _cleanup_r
 .text.std.isra.0
                0x10010370       0x48 c:/program files (x86)/atmel/studio/7.0/toolchain/arm/arm-gnu-toolchain/bin/../lib/gcc/arm-none-eabi/5.3.1/../../../../arm-none-eabi/lib/armv6-m\libc_nano.a(lib_a-findfp.o)
 .text.__sfmoreglue
                0x100103b8       0x2c c:/program files (x86)/atmel/studio/7.0/toolchain/arm/arm-gnu-toolchain/bin/../lib/gcc/arm-none-eabi/5.3.1/../../../../arm-none-eabi/lib/armv6-m\libc_nano.a(lib_a-findfp.o)
                0x100103b8                __sfmoreglue
 .text.__sinit  0x100103e4       0x68 c:/program files (x86)/atmel/studio/7.0/toolchain/arm/arm-gnu-toolchain/bin/../lib/gcc/arm-none-eabi/5.3.1/../../../../arm-none-eabi/lib/armv6-m\libc_nano.a(lib_a-findfp.o)
                0x100103e4                __sinit
 .text.__sfp    0x1001044c       0x7c c:/program files (x86)/atmel/studio/7.0/toolchain/arm/arm-gnu-toolchain/bin/../lib/gcc/arm-none-eabi/5.3.1/../../../../arm-none-eabi/lib/armv6-m\libc_nano.a(lib_a-findfp.o)
                0x1001044c                __sfp
 .text._fwalk_reent
                0x100104c8       0x42 c:/program files (x86)/atmel/studio/7.0/toolchain/arm/arm-gnu-toolchain/bin/../lib/gcc/arm-none-eabi/5.3.1/../../../../arm-none-eabi/lib/armv6-m\libc_nano.a(lib_a-fwalk.o)
                0x100104c8                _fwalk_reent
 *fill*         0x1001050a        0x2 
 .text.__libc_init_array
                0x1001050c       0x4c c:/program files (x86)/atmel/studio/7.0/toolchain/arm/arm-gnu-toolchain/bin/../lib/gcc/arm-none-eabi/5.3.1/../../../../arm-none-eabi/lib/armv6-m\libc_nano.a(lib_a-init.o)
                0x1001050c                __libc_init_array
 .text.memcmp   0x10010558       0x1e c:/program files (x86)/atmel/studio/7.0/toolchain/arm/arm-gnu-toolchain/bin/../lib/gcc/arm-none-eabi/5.3.1/../../../../arm-none-eabi/lib/armv6-m\libc_nano.a(lib_a-memcmp.o)
                0x10010558                memcmp
 .text.memcpy   0x10010576       0x12 c:/program files (x86)/atmel/studio/7.0/toolchain/arm/arm-gnu-toolchain/bin/../lib/gcc/arm-none-eabi/5.3.1/../../../../arm-none-eabi/lib/armv6-m\libc_nano.a(lib_a-memcpy-stub.o)
                0x10010576                memcpy
 .text.memset   0x10010588       0x10 c:/program files (x86)/atmel/studio/7.0/toolchain/arm/arm-gnu-toolchain/bin/../lib/gcc/arm-none-eabi/5.3.1/../../../../arm-none-eabi/lib/armv6-m\libc_nano.a(lib_a-memset.o)
                0x10010588                memset
 .text._free_r  0x10010598       0x8c c:/program files (x86)/atmel/studio/7.0/toolchain/arm/arm-gnu-toolchain/bin/../lib/gcc/arm-none-eabi/5.3.1/../../../../arm-none-eabi/lib/armv6-m\libc_nano.a(lib_a-nano-freer.o)
                0x10010598                _free_r
 .text._malloc_r
                0x10010624       0xac c:/program files (x86)/atmel/studio/7.0/toolchain/arm/arm-gnu-toolchain/bin/../lib/gcc/arm-none-eabi/5.3.1/../../../../arm-none-eabi/lib/armv6-m\libc_nano.a(lib_a-nano-mallocr.o)
                0x10010624                _malloc_r
 .text.printf   0x100106d0       0x34 c:/program files (x86)/atmel/studio/7.0/toolchain/arm/arm-gnu-toolchain/bin/../lib/gcc/arm-none-eabi/5.3.1/../../../../arm-none-eabi/lib/armv6-m\libc_nano.a(lib_a-printf.o)
                0x100106d0                iprintf
                0x100106d0                printf
 .text.putchar  0x10010704       0x28 c:/program files (x86)/atmel/studio/7.0/toolchain/arm/arm-gnu-toolchain/bin/../lib/gcc/arm-none-eabi/5.3.1/../../../../arm-none-eabi/lib/armv6-m\libc_nano.a(lib_a-putchar.o)
                0x10010704                putchar
 .text._puts_r  0x1001072c       0xc4 c:/program files (x86)/atmel/studio/7.0/toolchain/arm/arm-gnu-toolchain/bin/../lib/gcc/arm-none-eabi/5.3.1/../../../../arm-none-eabi/lib/armv6-m\libc_nano.a(lib_a-puts.o)
                0x1001072c                _puts_r
 .text.puts     0x100107f0       0x14 c:/program files (x86)/atmel/studio/7.0/toolchain/arm/arm-gnu-toolchain/bin/../lib/gcc/arm-none-eabi/5.3.1/../../../../arm-none-eabi/lib/armv6-m\libc_nano.a(lib_a-puts.o)
                0x100107f0                puts
 .text.rand     0x10010804       0x78 c:/program files (x86)/atmel/studio/7.0/toolchain/arm/arm-gnu-toolchain/bin/../lib/gcc/arm-none-eabi/5.3.1/../../../../arm-none-eabi/lib/armv6-m\libc_nano.a(lib_a-rand.o)
                0x10010804                rand
 .text._sbrk_r  0x1001087c       0x24 c:/program files (x86)/atmel/studio/7.0/toolchain/arm/arm-gnu-toolchain/bin/../lib/gcc/arm-none-eabi/5.3.1/../../../../arm-none-eabi/lib/armv6-m\libc_nano.a(lib_a-sbrkr.o)
                0x1001087c                _sbrk_r
 .text.setbuf   0x100108a0       0x12 c:/program files (x86)/atmel/studio/7.0/toolchain/arm/arm-gnu-toolchain/bin/../lib/gcc/arm-none-eabi/5.3.1/../../../../arm-none-eabi/lib/armv6-m\libc_nano.a(lib_a-setbuf.o)
                0x100108a0                setbuf
 *fill*         0x100108b2        0x2 
 .text.setvbuf  0x100108b4      0x160 c:/program files (x86)/atmel/studio/7.0/toolchain/arm/arm-gnu-toolchain/bin/../lib/gcc/arm-none-eabi/5.3.1/../../../../arm-none-eabi/lib/armv6-m\libc_nano.a(lib_a-setvbuf.o)
                0x100108b4                setvbuf
 .text.snprintf
                0x10010a14       0x64 c:/program files (x86)/atmel/studio/7.0/toolchain/arm/arm-gnu-toolchain/bin/../lib/gcc/arm-none-eabi/5.3.1/../../../../arm-none-eabi/lib/armv6-m\libc_nano.a(lib_a-snprintf.o)
                0x10010a14                sniprintf
                0x10010a14                snprintf
 .text.__sread  0x10010a78       0x28 c:/program files (x86)/atmel/studio/7.0/toolchain/arm/arm-gnu-toolchain/bin/../lib/gcc/arm-none-eabi/5.3.1/../../../../arm-none-eabi/lib/armv6-m\libc_nano.a(lib_a-stdio.o)
                0x10010a78                __sread
 .text.__swrite
                0x10010aa0       0x38 c:/program files (x86)/atmel/studio/7.0/toolchain/arm/arm-gnu-toolchain/bin/../lib/gcc/arm-none-eabi/5.3.1/../../../../arm-none-eabi/lib/armv6-m\libc_nano.a(lib_a-stdio.o)
                0x10010aa0                __swrite
 .text.__sseek  0x10010ad8       0x2c c:/program files (x86)/atmel/studio/7.0/toolchain/arm/arm-gnu-toolchain/bin/../lib/gcc/arm-none-eabi/5.3.1/../../../../arm-none-eabi/lib/armv6-m\libc_nano.a(lib_a-stdio.o)
                0x10010ad8                __sseek
 .text.__sclose
                0x10010b04        0xc c:/program files (x86)/atmel/studio/7.0/toolchain/arm/arm-gnu-toolchain/bin/../lib/gcc/arm-none-eabi/5.3.1/../../../../arm-none-eabi/lib/armv6-m\libc_nano.a(lib_a-stdio.o)
                0x10010b04                __sclose
 .text          0x10010b10        0xe c:/program files (x86)/atmel/studio/7.0/toolchain/arm/arm-gnu-toolchain/bin/../lib/gcc/arm-none-eabi/5.3.1/../../../../arm-none-eabi/lib/armv6-m\libc_nano.a(lib_a-strlen.o)
                0x10010b10                strlen
 *fill*         0x10010b1e        0x2 
 .text.__swbuf_r
                0x10010b20       0xb0 c:/program files (x86)/atmel/studio/7.0/toolchain/arm/arm-gnu-toolchain/bin/../lib/gcc/arm-none-eabi/5.3.1/../../../../arm-none-eabi/lib/armv6-m\libc_nano.a(lib_a-wbuf.o)
                0x10010b20                __swbuf_r
 .text._write_r
                0x10010bd0       0x28 c:/program files (x86)/atmel/studio/7.0/toolchain/arm/arm-gnu-toolchain/bin/../lib/gcc/arm-none-eabi/5.3.1/../../../../arm-none-eabi/lib/armv6-m\libc_nano.a(lib_a-writer.o)
                0x10010bd0                _write_r
 .text.__swsetup_r
                0x10010bf8       0xec c:/program files (x86)/atmel/studio/7.0/toolchain/arm/arm-gnu-toolchain/bin/../lib/gcc/arm-none-eabi/5.3.1/../../../../arm-none-eabi/lib/armv6-m\libc_nano.a(lib_a-wsetup.o)
                0x10010bf8                __swsetup_r
 .text._close_r
                0x10010ce4       0x24 c:/program files (x86)/atmel/studio/7.0/toolchain/arm/arm-gnu-toolchain/bin/../lib/gcc/arm-none-eabi/5.3.1/../../../../arm-none-eabi/lib/armv6-m\libc_nano.a(lib_a-closer.o)
                0x10010ce4                _close_r
 .text._lseek_r
                0x10010d08       0x28 c:/program files (x86)/atmel/studio/7.0/toolchain/arm/arm-gnu-toolchain/bin/../lib/gcc/arm-none-eabi/5.3.1/../../../../arm-none-eabi/lib/armv6-m\libc_nano.a(lib_a-lseekr.o)
                0x10010d08                _lseek_r
 .text.__swhatbuf_r
                0x10010d30       0x4c c:/program files (x86)/atmel/studio/7.0/toolchain/arm/arm-gnu-toolchain/bin/../lib/gcc/arm-none-eabi/5.3.1/../../../../arm-none-eabi/lib/armv6-m\libc_nano.a(lib_a-makebuf.o)
                0x10010d30                __swhatbuf_r
 .text.__smakebuf_r
                0x10010d7c       0x7c c:/program files (x86)/atmel/studio/7.0/toolchain/arm/arm-gnu-toolchain/bin/../lib/gcc/arm-none-eabi/5.3.1/../../../../arm-none-eabi/lib/armv6-m\libc_nano.a(lib_a-makebuf.o)
                0x10010d7c                __smakebuf_r
 .text.malloc   0x10010df8       0x14 c:/program files (x86)/atmel/studio/7.0/toolchain/arm/arm-gnu-toolchain/bin/../lib/gcc/arm-none-eabi/5.3.1/../../../../arm-none-eabi/lib/armv6-m\libc_nano.a(lib_a-malloc.o)
                0x10010df8                malloc
 .text.__ssputs_r
                0x10010e0c       0xc4 c:/program files (x86)/atmel/studio/7.0/toolchain/arm/arm-gnu-toolchain/bin/../lib/gcc/arm-none-eabi/5.3.1/../../../../arm-none-eabi/lib/armv6-m\libc_nano.a(lib_a-nano-svfprintf.o)
                0x10010e0c                __ssputs_r
 .text._svfprintf_r
                0x10010ed0      0x1fc c:/program files (x86)/atmel/studio/7.0/toolchain/arm/arm-gnu-toolchain/bin/../lib/gcc/arm-none-eabi/5.3.1/../../../../arm-none-eabi/lib/armv6-m\libc_nano.a(lib_a-nano-svfprintf.o)
                0x10010ed0                _svfiprintf_r
                0x10010ed0                _svfprintf_r
 .text.__sfputc_r
                0x100110cc       0x2a c:/program files (x86)/atmel/studio/7.0/toolchain/arm/arm-gnu-toolchain/bin/../lib/gcc/arm-none-eabi/5.3.1/../../../../arm-none-eabi/lib/armv6-m\libc_nano.a(lib_a-nano-vfprintf.o)
 .text.__sfputs_r
                0x100110f6       0x24 c:/program files (x86)/atmel/studio/7.0/toolchain/arm/arm-gnu-toolchain/bin/../lib/gcc/arm-none-eabi/5.3.1/../../../../arm-none-eabi/lib/armv6-m\libc_nano.a(lib_a-nano-vfprintf.o)
                0x100110f6                __sfputs_r
 *fill*         0x1001111a        0x2 
 .text._vfprintf_r
                0x1001111c      0x238 c:/program files (x86)/atmel/studio/7.0/toolchain/arm/arm-gnu-toolchain/bin/../lib/gcc/arm-none-eabi/5.3.1/../../../../arm-none-eabi/lib/armv6-m\libc_nano.a(lib_a-nano-vfprintf.o)
                0x1001111c                _vfprintf_r
                0x1001111c                _vfiprintf_r
 .text._printf_common
                0x10011354       0xdc c:/program files (x86)/atmel/studio/7.0/toolchain/arm/arm-gnu-toolchain/bin/../lib/gcc/arm-none-eabi/5.3.1/../../../../arm-none-eabi/lib/armv6-m\libc_nano.a(lib_a-nano-vfprintf_i.o)
                0x10011354                _printf_common
 .text._printf_i
                0x10011430      0x244 c:/program files (x86)/atmel/studio/7.0/toolchain/arm/arm-gnu-toolchain/bin/../lib/gcc/arm-none-eabi/5.3.1/../../../../arm-none-eabi/lib/armv6-m\libc_nano.a(lib_a-nano-vfprintf_i.o)
                0x10011430                _printf_i
 .text._putc_r  0x10011674       0x6c c:/program files (x86)/atmel/studio/7.0/toolchain/arm/arm-gnu-toolchain/bin/../lib/gcc/arm-none-eabi/5.3.1/../../../../arm-none-eabi/lib/armv6-m\libc_nano.a(lib_a-putc.o)
                0x10011674                _putc_r
 .text._read_r  0x100116e0       0x28 c:/program files (x86)/atmel/studio/7.0/toolchain/arm/arm-gnu-toolchain/bin/../lib/gcc/arm-none-eabi/5.3.1/../../../../arm-none-eabi/lib/armv6-m\libc_nano.a(lib_a-readr.o)
                0x100116e0                _read_r
 .text._fstat_r
                0x10011708       0x24 c:/program files (x86)/atmel/studio/7.0/toolchain/arm/arm-gnu-toolchain/bin/../lib/gcc/arm-none-eabi/5.3.1/../../../../arm-none-eabi/lib/armv6-m\libc_nano.a(lib_a-fstatr.o)
                0x10011708                _fstat_r
 .text._isatty_r
                0x1001172c       0x24 c:/program files (x86)/atmel/studio/7.0/toolchain/arm/arm-gnu-toolchain/bin/../lib/gcc/arm-none-eabi/5.3.1/../../../../arm-none-eabi/lib/armv6-m\libc_nano.a(lib_a-isattyr.o)
                0x1001172c                _isatty_r
 .text.memchr   0x10011750       0x16 c:/program files (x86)/atmel/studio/7.0/toolchain/arm/arm-gnu-toolchain/bin/../lib/gcc/arm-none-eabi/5.3.1/../../../../arm-none-eabi/lib/armv6-m\libc_nano.a(lib_a-memchr-stub.o)
                0x10011750                memchr
 .text.memmove  0x10011766       0x2a c:/program files (x86)/atmel/studio/7.0/toolchain/arm/arm-gnu-toolchain/bin/../lib/gcc/arm-none-eabi/5.3.1/../../../../arm-none-eabi/lib/armv6-m\libc_nano.a(lib_a-memmove.o)
                0x10011766                memmove
 .text._realloc_r
                0x10011790       0x4c c:/program files (x86)/atmel/studio/7.0/toolchain/arm/arm-gnu-toolchain/bin/../lib/gcc/arm-none-eabi/5.3.1/../../../../arm-none-eabi/lib/armv6-m\libc_nano.a(lib_a-nano-reallocr.o)
                0x10011790                _realloc_r
 .text._malloc_usable_size_r
                0x100117dc       0x16 c:/program files (x86)/atmel/studio/7.0/toolchain/arm/arm-gnu-toolchain/bin/../lib/gcc/arm-none-eabi/5.3.1/../../../../arm-none-eabi/lib/armv6-m\libc_nano.a(lib_a-nano-msizer.o)
                0x100117dc                _malloc_usable_size_r
 *fill*         0x100117f2        0x2 
 .text          0x100117f4       0x58 c:/program files (x86)/atmel/studio/7.0/toolchain/arm/arm-gnu-toolchain/bin/../lib/gcc/arm-none-eabi/5.3.1/armv6-m\libgcc.a(_muldi3.o)
                0x100117f4                __muldi3
                0x100117f4                __aeabi_lmul
 *(.glue_7t)
 .glue_7t       0x1001184c        0x0 linker stubs
 *(.glue_7)
 .glue_7        0x1001184c        0x0 linker stubs
 *(.rodata .rodata* .gnu.linkonce.r.*)
 .rodata        0x1001184c       0x16 src/ASF/thirdparty/wireless/ble_smart_sdk/ble_services/ble_mgr/ble_manager.o
 *fill*         0x10011862        0x2 
 .rodata.ble_mgr_gatt_server_handle
                0x10011864       0x28 src/ASF/thirdparty/wireless/ble_smart_sdk/ble_services/ble_mgr/ble_manager.o
 .rodata.str1.1
                0x1001188c      0x5b4 src/ASF/thirdparty/wireless/ble_smart_sdk/ble_services/ble_mgr/ble_manager.o
                                0x5b6 (size before relaxing)
 .rodata.ble_mgr_gap_handle
                0x10011e40       0x4c src/ASF/thirdparty/wireless/ble_smart_sdk/ble_services/ble_mgr/ble_manager.o
 .rodata.CSWTCH.93
                0x10011e8c        0x7 src/ASF/thirdparty/wireless/ble_smart_sdk/ble_services/ble_mgr/ble_manager.o
 *fill*         0x10011e93        0x1 
 .rodata.CSWTCH.94
                0x10011e94       0x1c src/ASF/thirdparty/wireless/ble_smart_sdk/ble_services/ble_mgr/ble_manager.o
 .rodata        0x10011eb0       0x14 src/BLE.o
 .rodata.CYMOTE_SERVICE_UUID
                0x10011ec4       0x10 src/BLE.o
                0x10011ec4                CYMOTE_SERVICE_UUID
 .rodata.GYRO_UUID
                0x10011ed4       0x10 src/BLE.o
                0x10011ed4                GYRO_UUID
 .rodata.MAGNET_UUID
                0x10011ee4       0x10 src/BLE.o
                0x10011ee4                MAGNET_UUID
 .rodata.str1.1
                0x10011ef4      0x23b src/BLE.o
                                0x23d (size before relaxing)
 .rodata.ACCEL_UUID
                0x1001212f       0x10 src/BLE.o
                0x1001212f                ACCEL_UUID
 .rodata.TIME_UUID
                0x1001213f       0x10 src/BLE.o
                0x1001213f                TIME_UUID
 .rodata.JOYSTICK_BUTTONS_UUID
                0x1001214f       0x10 src/BLE.o
                0x1001214f                JOYSTICK_BUTTONS_UUID
 .rodata.str1.1
                0x1001215f       0xad src/main_sam_b.o
                                 0xb2 (size before relaxing)
 .rodata.cymote_app_gap_cb
                0x1001220c       0x4c src/main_sam_b.o
 .rodata        0x10012258        0xb C:\Senior-Design\Cymote\Cymote2\Cymote2\src\ASF\thirdparty\wireless\ble_smart_sdk\lib\cm0\gcc\libblusdk.a(gap.o)
 .rodata.CSWTCH.45
                0x10012263        0x3 C:\Senior-Design\Cymote\Cymote2\Cymote2\src\ASF\thirdparty\wireless\ble_smart_sdk\lib\cm0\gcc\libblusdk.a(gap.o)
 .rodata.CSWTCH.47
                0x10012266        0xf C:\Senior-Design\Cymote\Cymote2\Cymote2\src\ASF\thirdparty\wireless\ble_smart_sdk\lib\cm0\gcc\libblusdk.a(gap.o)
 .rodata.client_conf_uuid
                0x10012275        0x2 C:\Senior-Design\Cymote\Cymote2\Cymote2\src\ASF\thirdparty\wireless\ble_smart_sdk\lib\cm0\gcc\libblusdk.a(gatt_server.o)
                0x10012275                client_conf_uuid
 .rodata.presentation_format_uuid
                0x10012277        0x2 C:\Senior-Design\Cymote\Cymote2\Cymote2\src\ASF\thirdparty\wireless\ble_smart_sdk\lib\cm0\gcc\libblusdk.a(gatt_server.o)
                0x10012277                presentation_format_uuid
 .rodata.user_desc_uuid
                0x10012279        0x2 C:\Senior-Design\Cymote\Cymote2\Cymote2\src\ASF\thirdparty\wireless\ble_smart_sdk\lib\cm0\gcc\libblusdk.a(gatt_server.o)
                0x10012279                user_desc_uuid
 .rodata.server_conf_uuid
                0x1001227b        0x2 C:\Senior-Design\Cymote\Cymote2\Cymote2\src\ASF\thirdparty\wireless\ble_smart_sdk\lib\cm0\gcc\libblusdk.a(gatt_server.o)
                0x1001227b                server_conf_uuid
 .rodata.extended_props_uuid
                0x1001227d        0x2 C:\Senior-Design\Cymote\Cymote2\Cymote2\src\ASF\thirdparty\wireless\ble_smart_sdk\lib\cm0\gcc\libblusdk.a(gatt_server.o)
                0x1001227d                extended_props_uuid
 .rodata.include_uuid
                0x1001227f        0x2 C:\Senior-Design\Cymote\Cymote2\Cymote2\src\ASF\thirdparty\wireless\ble_smart_sdk\lib\cm0\gcc\libblusdk.a(gatt_server.o)
                0x1001227f                include_uuid
 .rodata.char_uuid
                0x10012281        0x2 C:\Senior-Design\Cymote\Cymote2\Cymote2\src\ASF\thirdparty\wireless\ble_smart_sdk\lib\cm0\gcc\libblusdk.a(gatt_server.o)
                0x10012281                char_uuid
 *fill*         0x10012283        0x1 
 .rodata        0x10012284       0x40 c:/program files (x86)/atmel/studio/7.0/toolchain/arm/arm-gnu-toolchain/bin/../lib/gcc/arm-none-eabi/5.3.1/armv6-m\libgcc.a(muldf3.o)
 .rodata.__sf_fake_stdin
                0x100122c4       0x20 c:/program files (x86)/atmel/studio/7.0/toolchain/arm/arm-gnu-toolchain/bin/../lib/gcc/arm-none-eabi/5.3.1/../../../../arm-none-eabi/lib/armv6-m\libc_nano.a(lib_a-findfp.o)
                0x100122c4                __sf_fake_stdin
 .rodata.__sf_fake_stdout
                0x100122e4       0x20 c:/program files (x86)/atmel/studio/7.0/toolchain/arm/arm-gnu-toolchain/bin/../lib/gcc/arm-none-eabi/5.3.1/../../../../arm-none-eabi/lib/armv6-m\libc_nano.a(lib_a-findfp.o)
                0x100122e4                __sf_fake_stdout
 .rodata.__sf_fake_stderr
                0x10012304       0x20 c:/program files (x86)/atmel/studio/7.0/toolchain/arm/arm-gnu-toolchain/bin/../lib/gcc/arm-none-eabi/5.3.1/../../../../arm-none-eabi/lib/armv6-m\libc_nano.a(lib_a-findfp.o)
                0x10012304                __sf_fake_stderr
 .rodata.str1.1
                0x10012324        0x2 c:/program files (x86)/atmel/studio/7.0/toolchain/arm/arm-gnu-toolchain/bin/../lib/gcc/arm-none-eabi/5.3.1/../../../../arm-none-eabi/lib/armv6-m\libc_nano.a(lib_a-impure.o)
 *fill*         0x10012326        0x2 
 .rodata._global_impure_ptr
                0x10012328        0x4 c:/program files (x86)/atmel/studio/7.0/toolchain/arm/arm-gnu-toolchain/bin/../lib/gcc/arm-none-eabi/5.3.1/../../../../arm-none-eabi/lib/armv6-m\libc_nano.a(lib_a-impure.o)
                0x10012328                _global_impure_ptr
 .rodata.str1.1
                0x1001232c       0x11 c:/program files (x86)/atmel/studio/7.0/toolchain/arm/arm-gnu-toolchain/bin/../lib/gcc/arm-none-eabi/5.3.1/../../../../arm-none-eabi/lib/armv6-m\libc_nano.a(lib_a-nano-svfprintf.o)
 .rodata.str1.1
                0x1001233d       0x11 c:/program files (x86)/atmel/studio/7.0/toolchain/arm/arm-gnu-toolchain/bin/../lib/gcc/arm-none-eabi/5.3.1/../../../../arm-none-eabi/lib/armv6-m\libc_nano.a(lib_a-nano-vfprintf.o)
 .rodata.str1.1
                0x1001233d       0x22 c:/program files (x86)/atmel/studio/7.0/toolchain/arm/arm-gnu-toolchain/bin/../lib/gcc/arm-none-eabi/5.3.1/../../../../arm-none-eabi/lib/armv6-m\libc_nano.a(lib_a-nano-vfprintf_i.o)
 *(.ARM.extab* .gnu.linkonce.armextab.*)
                0x10012360                . = ALIGN (0x4)
 *fill*         0x1001235f        0x1 
 *(.init)
 .init          0x10012360        0x4 c:/program files (x86)/atmel/studio/7.0/toolchain/arm/arm-gnu-toolchain/bin/../lib/gcc/arm-none-eabi/5.3.1/armv6-m/crti.o
                0x10012360                _init
 .init          0x10012364        0x8 c:/program files (x86)/atmel/studio/7.0/toolchain/arm/arm-gnu-toolchain/bin/../lib/gcc/arm-none-eabi/5.3.1/armv6-m/crtn.o
                0x1001236c                . = ALIGN (0x4)
                0x1001236c                __preinit_array_start = .
 *(.preinit_array)
                0x1001236c                __preinit_array_end = .
                0x1001236c                . = ALIGN (0x4)
                0x1001236c                __init_array_start = .
 *(SORT(.init_array.*))
 *(.init_array)
 .init_array    0x1001236c        0x4 c:/program files (x86)/atmel/studio/7.0/toolchain/arm/arm-gnu-toolchain/bin/../lib/gcc/arm-none-eabi/5.3.1/armv6-m/crtbegin.o
                0x10012370                __init_array_end = .
                0x10012370                . = ALIGN (0x4)
 *crtbegin.o(.ctors)
 *(EXCLUDE_FILE(*crtend.o) .ctors)
 *(SORT(.ctors.*))
 *crtend.o(.ctors)
                0x10012370                . = ALIGN (0x4)
 *(.fini)
 .fini          0x10012370        0x4 c:/program files (x86)/atmel/studio/7.0/toolchain/arm/arm-gnu-toolchain/bin/../lib/gcc/arm-none-eabi/5.3.1/armv6-m/crti.o
                0x10012370                _fini
 .fini          0x10012374        0x8 c:/program files (x86)/atmel/studio/7.0/toolchain/arm/arm-gnu-toolchain/bin/../lib/gcc/arm-none-eabi/5.3.1/armv6-m/crtn.o
                0x1001237c                . = ALIGN (0x4)
                0x1001237c                __fini_array_start = .
 *(.fini_array)
 .fini_array    0x1001237c        0x4 c:/program files (x86)/atmel/studio/7.0/toolchain/arm/arm-gnu-toolchain/bin/../lib/gcc/arm-none-eabi/5.3.1/armv6-m/crtbegin.o
 *(SORT(.fini_array.*))
                0x10012380                __fini_array_end = .
 *crtbegin.o(.dtors)
 *(EXCLUDE_FILE(*crtend.o) .dtors)
 *(SORT(.dtors.*))
 *crtend.o(.dtors)
                0x10012380                . = ALIGN (0x4)
                0x10012380                _efixed = .

.vfp11_veneer   0x10012380        0x0
 .vfp11_veneer  0x10012380        0x0 linker stubs

.v4_bx          0x10012380        0x0
 .v4_bx         0x10012380        0x0 linker stubs

.iplt           0x10012380        0x0
 .iplt          0x10012380        0x0 c:/program files (x86)/atmel/studio/7.0/toolchain/arm/arm-gnu-toolchain/bin/../lib/gcc/arm-none-eabi/5.3.1/armv6-m/crtbegin.o

.eh_frame       0x10012380        0x0
 .eh_frame      0x10012380        0x0 c:/program files (x86)/atmel/studio/7.0/toolchain/arm/arm-gnu-toolchain/bin/../lib/gcc/arm-none-eabi/5.3.1/armv6-m/crtbegin.o

.rel.dyn        0x10012380        0x0
 .rel.iplt      0x10012380        0x0 c:/program files (x86)/atmel/studio/7.0/toolchain/arm/arm-gnu-toolchain/bin/../lib/gcc/arm-none-eabi/5.3.1/armv6-m/crtbegin.o

.jcr            0x10012380        0x0
 .jcr           0x10012380        0x0 c:/program files (x86)/atmel/studio/7.0/toolchain/arm/arm-gnu-toolchain/bin/../lib/gcc/arm-none-eabi/5.3.1/armv6-m/crtbegin.o

.igot.plt       0x10012380        0x0
 .igot.plt      0x10012380        0x0 c:/program files (x86)/atmel/studio/7.0/toolchain/arm/arm-gnu-toolchain/bin/../lib/gcc/arm-none-eabi/5.3.1/armv6-m/crtbegin.o
                0x10012380                . = ALIGN (0x4)
                0x10012380                _etext = .

.relocate       0x10012380       0x6c
                0x10012380                . = ALIGN (0x4)
                0x10012380                _srelocate = .
 *(.ramfunc .ramfunc.*)
 *(.data .data.*)
 .data.l2cap_avail_buffers
                0x10012380        0x1 C:\Senior-Design\Cymote\Cymote2\Cymote2\src\ASF\thirdparty\wireless\ble_smart_sdk\lib\cm0\gcc\libblusdk.a(l2cc_task.o)
                0x10012380                l2cap_avail_buffers
 *fill*         0x10012381        0x3 
 .data.dummy_buffer
                0x10012384        0x4 C:\Senior-Design\Cymote\Cymote2\Cymote2\src\ASF\thirdparty\wireless\ble_smart_sdk\lib\cm0\gcc\libblusdk.a(interface.o)
                0x10012384                dummy_buffer
 .data.impure_data
                0x10012388       0x60 c:/program files (x86)/atmel/studio/7.0/toolchain/arm/arm-gnu-toolchain/bin/../lib/gcc/arm-none-eabi/5.3.1/../../../../arm-none-eabi/lib/armv6-m\libc_nano.a(lib_a-impure.o)
 .data._impure_ptr
                0x100123e8        0x4 c:/program files (x86)/atmel/studio/7.0/toolchain/arm/arm-gnu-toolchain/bin/../lib/gcc/arm-none-eabi/5.3.1/../../../../arm-none-eabi/lib/armv6-m\libc_nano.a(lib_a-impure.o)
                0x100123e8                _impure_ptr
                0x100123ec                . = ALIGN (0x4)
                0x100123ec                _erelocate = .

.bss            0x100123f0     0x2f7c
                0x100123f0                . = ALIGN (0x4)
                0x100123f0                _sbss = .
                0x100123f0                _szero = .
 *(.bss .bss.*)
 .bss           0x100123f0       0x1c c:/program files (x86)/atmel/studio/7.0/toolchain/arm/arm-gnu-toolchain/bin/../lib/gcc/arm-none-eabi/5.3.1/armv6-m/crtbegin.o
 .bss.dualtimer_callback_timer1
                0x1001240c        0x4 src/ASF/sam0/drivers/dualtimer/dualtimer.o
 .bss.dualtimer_callback_timer2
                0x10012410        0x4 src/ASF/sam0/drivers/dualtimer/dualtimer.o
 .bss.heap.5286
                0x10012414        0x4 src/ASF/sam0/utils/syscalls/gcc/syscalls.o
 .bss.event_pool_memory
                0x10012418      0x400 src/ASF/thirdparty/wireless/ble_smart_sdk/ble_services/ble_mgr/ble_manager.o
                0x10012418                event_pool_memory
 .bss.att_db_data
                0x10012818      0x4e0 src/ASF/thirdparty/wireless/ble_smart_sdk/ble_services/ble_mgr/ble_manager.o
                0x10012818                att_db_data
 .bss.ble_user_event_cb
                0x10012cf8        0x4 src/ASF/thirdparty/wireless/ble_smart_sdk/ble_services/ble_mgr/ble_manager.o
                0x10012cf8                ble_user_event_cb
 .bss.scan_response_count
                0x10012cfc        0x1 src/ASF/thirdparty/wireless/ble_smart_sdk/ble_services/ble_mgr/ble_manager.o
                0x10012cfc                scan_response_count
 .bss.ble_peripheral_dev_address
                0x10012cfd        0x7 src/ASF/thirdparty/wireless/ble_smart_sdk/ble_services/ble_mgr/ble_manager.o
 .bss.event_params_memory
                0x10012d04     0x1000 src/ASF/thirdparty/wireless/ble_smart_sdk/ble_services/ble_mgr/ble_manager.o
                0x10012d04                event_params_memory
 .bss.ulp_status
                0x10013d04        0x1 src/ASF/thirdparty/wireless/ble_smart_sdk/ble_services/ble_mgr/ble_manager.o
                0x10013d04                ulp_status
 *fill*         0x10013d05        0x3 
 .bss.button_cb_func
                0x10013d08        0x4 src/ASF/thirdparty/wireless/ble_smart_sdk/services/gpio/button.o
                0x10013d08                button_cb_func
 .bss.tick      0x10013d0c        0x4 src/ASF/thirdparty/wireless/ble_smart_sdk/services/uart/console_serial.o
                0x10013d0c                tick
 .bss.read_status
                0x10013d10        0x1 src/ASF/thirdparty/wireless/ble_smart_sdk/services/uart/console_serial.o
                0x10013d10                read_status
 .bss.string_input
                0x10013d11        0x1 src/ASF/thirdparty/wireless/ble_smart_sdk/services/uart/console_serial.o
                0x10013d11                string_input
 *fill*         0x10013d12        0x2 
 .bss.user_callback_func
                0x10013d14        0x4 src/ASF/thirdparty/wireless/ble_smart_sdk/services/uart/console_serial.o
                0x10013d14                user_callback_func
 .bss.platform_event_pending_list
                0x10013d18        0x4 src/ASF/thirdparty/wireless/ble_smart_sdk/src/event_handler.o
 .bss.platform_event_free_list
                0x10013d1c        0x4 src/ASF/thirdparty/wireless/ble_smart_sdk/src/event_handler.o
 .bss.platform_event_pool
                0x10013d20       0x78 src/ASF/thirdparty/wireless/ble_smart_sdk/src/event_handler.o
 .bss.rcv_msg.12903
                0x10013d98        0x4 src/ASF/thirdparty/wireless/ble_smart_sdk/src/platform_drv.o
 .bss.ke_free   0x10013d9c        0x4 src/ASF/thirdparty/wireless/ble_smart_sdk/src/platform_drv.o
 .bss.gapm_get_id_from_task
                0x10013da0        0x4 src/ASF/thirdparty/wireless/ble_smart_sdk/src/platform_drv.o
 .bss.gapm_get_task_from_id
                0x10013da4        0x4 src/ASF/thirdparty/wireless/ble_smart_sdk/src/platform_drv.o
 .bss.os_sem_up
                0x10013da8        0x4 src/ASF/thirdparty/wireless/ble_smart_sdk/src/platform_drv.o
 .bss.pwr_wait_BLE_out_of_reset
                0x10013dac        0x4 src/ASF/thirdparty/wireless/ble_smart_sdk/src/platform_drv.o
 .bss.platform_initialized
                0x10013db0        0x1 src/ASF/thirdparty/wireless/ble_smart_sdk/src/platform_drv.o
                0x10013db0                platform_initialized
 *fill*         0x10013db1        0x3 
 .bss.pwr_disable_arm_wakeup
                0x10013db4        0x4 src/ASF/thirdparty/wireless/ble_smart_sdk/src/platform_drv.o
 .bss.gstrFwSem
                0x10013db8        0x4 src/ASF/thirdparty/wireless/ble_smart_sdk/src/platform_drv.o
 .bss.os_sem_down
                0x10013dbc        0x4 src/ASF/thirdparty/wireless/ble_smart_sdk/src/platform_drv.o
 .bss.pwr_enable_arm_wakeup
                0x10013dc0        0x4 src/ASF/thirdparty/wireless/ble_smart_sdk/src/platform_drv.o
 .bss.NMI_MsgQueueRecv
                0x10013dc4        0x4 src/ASF/thirdparty/wireless/ble_smart_sdk/src/platform_drv.o
 .bss.ke_msg_send
                0x10013dc8        0x4 src/ASF/thirdparty/wireless/ble_smart_sdk/src/platform_drv.o
 .bss.ble_stack_message_handler
                0x10013dcc        0x4 src/ASF/thirdparty/wireless/ble_smart_sdk/src/platform_drv.o
 .bss.pwr_arm_wakeup_req
                0x10013dd0        0x4 src/ASF/thirdparty/wireless/ble_smart_sdk/src/platform_drv.o
 .bss.ke_msg_hdr.12904
                0x10013dd4        0x4 src/ASF/thirdparty/wireless/ble_smart_sdk/src/platform_drv.o
 .bss.ke_msg_alloc
                0x10013dd8        0x4 src/ASF/thirdparty/wireless/ble_smart_sdk/src/platform_drv.o
 .bss.InternalAppMsgQHandle
                0x10013ddc        0x4 src/ASF/thirdparty/wireless/ble_smart_sdk/src/platform_drv.o
 .bss.time_ms   0x10013de0        0x8 src/main_sam_b.o
                0x10013de0                time_ms
 .bss.spare_event
                0x10013de8       0x10 C:\Senior-Design\Cymote\Cymote2\Cymote2\src\ASF\thirdparty\wireless\ble_smart_sdk\lib\cm0\gcc\libblusdk.a(event.o)
 .bss.spare_event_busy
                0x10013df8        0x1 C:\Senior-Design\Cymote\Cymote2\Cymote2\src\ASF\thirdparty\wireless\ble_smart_sdk\lib\cm0\gcc\libblusdk.a(event.o)
 *fill*         0x10013df9        0x3 
 .bss.event_pending_list
                0x10013dfc        0x4 C:\Senior-Design\Cymote\Cymote2\Cymote2\src\ASF\thirdparty\wireless\ble_smart_sdk\lib\cm0\gcc\libblusdk.a(event.o)
 .bss.event_free_list
                0x10013e00        0x4 C:\Senior-Design\Cymote\Cymote2\Cymote2\src\ASF\thirdparty\wireless\ble_smart_sdk\lib\cm0\gcc\libblusdk.a(event.o)
 .bss.u16GattcSeqNo
                0x10013e04        0x2 C:\Senior-Design\Cymote\Cymote2\Cymote2\src\ASF\thirdparty\wireless\ble_smart_sdk\lib\cm0\gcc\libblusdk.a(gatt_client.o)
 *fill*         0x10013e06        0x2 
 .bss.pu8valuesBuffer
                0x10013e08        0x4 C:\Senior-Design\Cymote\Cymote2\Cymote2\src\ASF\thirdparty\wireless\ble_smart_sdk\lib\cm0\gcc\libblusdk.a(gatt_server.o)
                0x10013e08                pu8valuesBuffer
 .bss.unNull    0x10013e0c        0x1 C:\Senior-Design\Cymote\Cymote2\Cymote2\src\ASF\thirdparty\wireless\ble_smart_sdk\lib\cm0\gcc\libblusdk.a(gatt_server.o)
                0x10013e0c                unNull
 *fill*         0x10013e0d        0x3 
 .bss.ptstrattDb
                0x10013e10        0x4 C:\Senior-Design\Cymote\Cymote2\Cymote2\src\ASF\thirdparty\wireless\ble_smart_sdk\lib\cm0\gcc\libblusdk.a(gatt_server.o)
                0x10013e10                ptstrattDb
 .bss.pu8valuesBufferEnd
                0x10013e14        0x4 C:\Senior-Design\Cymote\Cymote2\Cymote2\src\ASF\thirdparty\wireless\ble_smart_sdk\lib\cm0\gcc\libblusdk.a(gatt_server.o)
                0x10013e14                pu8valuesBufferEnd
 .bss.u32numberOfValues
                0x10013e18        0x4 C:\Senior-Design\Cymote\Cymote2\Cymote2\src\ASF\thirdparty\wireless\ble_smart_sdk\lib\cm0\gcc\libblusdk.a(gatt_server.o)
                0x10013e18                u32numberOfValues
 .bss.u32dbMemorySize
                0x10013e1c        0x4 C:\Senior-Design\Cymote\Cymote2\Cymote2\src\ASF\thirdparty\wireless\ble_smart_sdk\lib\cm0\gcc\libblusdk.a(gatt_server.o)
                0x10013e1c                u32dbMemorySize
 .bss.service_setup_buffer
                0x10013e20        0x4 C:\Senior-Design\Cymote\Cymote2\Cymote2\src\ASF\thirdparty\wireless\ble_smart_sdk\lib\cm0\gcc\libblusdk.a(gatt_server.o)
                0x10013e20                service_setup_buffer
 .bss.event_param_buff
                0x10013e24        0x4 C:\Senior-Design\Cymote\Cymote2\Cymote2\src\ASF\thirdparty\wireless\ble_smart_sdk\lib\cm0\gcc\libblusdk.a(interface.o)
                0x10013e24                event_param_buff
 .bss.event_param_buff_length
                0x10013e28        0x4 C:\Senior-Design\Cymote\Cymote2\Cymote2\src\ASF\thirdparty\wireless\ble_smart_sdk\lib\cm0\gcc\libblusdk.a(interface.o)
                0x10013e28                event_param_buff_length
 .bss.cmd_cmpl_flag
                0x10013e2c        0x4 C:\Senior-Design\Cymote\Cymote2\Cymote2\src\ASF\thirdparty\wireless\ble_smart_sdk\lib\cm0\gcc\libblusdk.a(interface.o)
 .bss.dummy_key.7283
                0x10013e30       0x10 C:\Senior-Design\Cymote\Cymote2\Cymote2\src\ASF\thirdparty\wireless\ble_smart_sdk\lib\cm0\gcc\libblusdk.a(gapc_task.o)
 .bss.dummy_key.7401
                0x10013e40       0x10 C:\Senior-Design\Cymote\Cymote2\Cymote2\src\ASF\thirdparty\wireless\ble_smart_sdk\lib\cm0\gcc\libblusdk.a(gapc_task.o)
 .bss.dummy_key.7419
                0x10013e50       0x10 C:\Senior-Design\Cymote\Cymote2\Cymote2\src\ASF\thirdparty\wireless\ble_smart_sdk\lib\cm0\gcc\libblusdk.a(gapc_task.o)
 .bss.peer_key_info
                0x10013e60       0x46 C:\Senior-Design\Cymote\Cymote2\Cymote2\src\ASF\thirdparty\wireless\ble_smart_sdk\lib\cm0\gcc\libblusdk.a(gapc_task.o)
 .bss.g_seq_num_tx
                0x10013ea6        0x2 C:\Senior-Design\Cymote\Cymote2\Cymote2\src\ASF\thirdparty\wireless\ble_smart_sdk\lib\cm0\gcc\libblusdk.a(gattc_task.o)
 .bss.Seq_NUM   0x10013ea8        0x2 C:\Senior-Design\Cymote\Cymote2\Cymote2\src\ASF\thirdparty\wireless\ble_smart_sdk\lib\cm0\gcc\libblusdk.a(gattc_task.o)
                0x10013ea8                Seq_NUM
 *fill*         0x10013eaa        0x2 
 .bss.u32usedBuffers
                0x10013eac        0x4 C:\Senior-Design\Cymote\Cymote2\Cymote2\src\ASF\thirdparty\wireless\ble_smart_sdk\lib\cm0\gcc\libblusdk.a(gattm_task.o)
                0x10013eac                u32usedBuffers
 .bss.__malloc_sbrk_start
                0x10013eb0        0x4 c:/program files (x86)/atmel/studio/7.0/toolchain/arm/arm-gnu-toolchain/bin/../lib/gcc/arm-none-eabi/5.3.1/../../../../arm-none-eabi/lib/armv6-m\libc_nano.a(lib_a-nano-mallocr.o)
                0x10013eb0                __malloc_sbrk_start
 .bss.__malloc_free_list
                0x10013eb4        0x4 c:/program files (x86)/atmel/studio/7.0/toolchain/arm/arm-gnu-toolchain/bin/../lib/gcc/arm-none-eabi/5.3.1/../../../../arm-none-eabi/lib/armv6-m\libc_nano.a(lib_a-nano-mallocr.o)
                0x10013eb4                __malloc_free_list
 *(COMMON)
 COMMON         0x10013eb8       0xd8 src/ASF/sam0/drivers/gpio/gpio.o
                0x10013eb8                _gpio_instances
 COMMON         0x10013f90        0x4 src/ASF/sam0/drivers/system/system_sam_b.o
                0x10013f90                system_clock_value
 COMMON         0x10013f94        0x8 src/ASF/sam0/drivers/uart/uart.o
                0x10013f94                _uart_instances
 COMMON         0x10013f9c        0x4 src/ASF/sam0/utils/stdio/read.o
                0x10013f9c                ptr_get
 COMMON         0x10013fa0        0x8 src/ASF/sam0/utils/stdio/write.o
                0x10013fa0                ptr_put
                0x10013fa4                stdio_base
 COMMON         0x10013fa8      0x840 src/ASF/thirdparty/wireless/ble_smart_sdk/ble_services/ble_mgr/ble_manager.o
                0x10013fa8                ble_mgr_htpt_event_cb
                0x10013fac                ble_mgr_gatt_server_event_cb
                0x10013fc0                ble_dev_info
                0x1001422c                ble_device_count
                0x10014230                ble_mgr_dtm_event_cb
                0x10014244                ble_mgr_gap_event_cb
                0x10014258                ble_mgr_gatt_client_event_cb
                0x1001426c                connected_state_info
                0x10014280                pf_cfg
                0x1001429c                event
                0x100142a0                ble_mgr_l2cap_event_cb
                0x100142a4                scan_info
                0x100145d8                ble_event_params
                0x100147e4                ble_mgr_custom_event_cb
 COMMON         0x100147e8       0x4c src/ASF/thirdparty/wireless/ble_smart_sdk/services/uart/console_serial.o
                0x100147e8                uart_instance
                0x1001480c                config_uart
 COMMON         0x10014834      0x2ea src/ASF/thirdparty/wireless/ble_smart_sdk/src/platform_drv.o
                0x10014834                default_samb11_clock_init
                0x1001483c                rwip_prevent_sleep_set
                0x10014840                platform_unregister_isr
                0x10014844                wakeup_event_pending
                0x10014848                rwip_prevent_sleep_clear
                0x1001484c                actualfreq
                0x10014850                port_list
                0x10014882                rx_buffer
                0x10014b04                platform_register_isr
                0x10014b08                handle_ext_wakeup_isr
                0x10014b0c                wakeup_source_active_cb
                0x10014b10                samb11_app_resume_cb
                0x10014b14                updateuartbr_fp
                0x10014b18                apps_resume_cb
                0x10014b1c                plf_event_buff_index
 *fill*         0x10014b1e        0x2 
 COMMON         0x10014b20        0xc src/ASF/thirdparty/wireless/ble_smart_sdk/src/port_from_sdk.o
                0x10014b20                wakeup_source_callback
 COMMON         0x10014b2c      0x2c0 src/main_sam_b.o
                0x10014b2c                accelerometer_data
                0x10014b32                cymote_connection_handle
                0x10014b34                joystick_data
                0x10014b38                gyroscope_data
                0x10014b3e                magnetometer_data
                0x10014b44                cymote_gatt_service_handle
                0x10014c84                buttons
                0x10014c88                console_instance
                0x10014cac                cymote_service_handler
 COMMON         0x10014dec        0xc C:\Senior-Design\Cymote\Cymote2\Cymote2\src\ASF\thirdparty\wireless\ble_smart_sdk\lib\cm0\gcc\libblusdk.a(event.o)
                0x10014dec                watched_event
 COMMON         0x10014df8      0x16a C:\Senior-Design\Cymote\Cymote2\Cymote2\src\ASF\thirdparty\wireless\ble_smart_sdk\lib\cm0\gcc\libblusdk.a(gap.o)
                0x10014df8                app_task_type
                0x10014dfa                gstrConnData
                0x10014e8a                device
 *fill*         0x10014f62        0x2 
 COMMON         0x10014f64      0x404 C:\Senior-Design\Cymote\Cymote2\Cymote2\src\ASF\thirdparty\wireless\ble_smart_sdk\lib\cm0\gcc\libblusdk.a(interface.o)
                0x10014f64                event_param_buff_index
                0x10014f68                dummy_buffer_buff
                0x10015168                interface_send_msg
 COMMON         0x10015368        0x4 c:/program files (x86)/atmel/studio/7.0/toolchain/arm/arm-gnu-toolchain/bin/../lib/gcc/arm-none-eabi/5.3.1/../../../../arm-none-eabi/lib/armv6-m\libc_nano.a(lib_a-reent.o)
                0x10015368                errno
                0x1001536c                . = ALIGN (0x4)
                0x1001536c                _ebss = .
                0x1001536c                _ezero = .

.stack          0x1001536c      0x804
                0x10015370                . = ALIGN (0x8)
 *fill*         0x1001536c        0x4 
                0x10015370                _sstack = .
                0x10015b70                . = (. + STACK_SIZE)
 *fill*         0x10015370      0x800 
                0x10015b70                . = ALIGN (0x8)
                0x10015b70                _estack = .
                [!provide]                PROVIDE (__exidx_start, .)

.ARM.exidx
 *(.ARM.exidx* .gnu.linkonce.armexidx.*)
                [!provide]                PROVIDE (__exidx_end, .)
                0x10015b70                . = ALIGN (0x4)
                0x10015b70                _end = .
OUTPUT(Cymote2.elf elf32-littlearm)

.ARM.attributes
                0x00000000       0x28
 .ARM.attributes
                0x00000000       0x1e c:/program files (x86)/atmel/studio/7.0/toolchain/arm/arm-gnu-toolchain/bin/../lib/gcc/arm-none-eabi/5.3.1/armv6-m/crti.o
 .ARM.attributes
                0x0000001e       0x2c c:/program files (x86)/atmel/studio/7.0/toolchain/arm/arm-gnu-toolchain/bin/../lib/gcc/arm-none-eabi/5.3.1/armv6-m/crtbegin.o
 .ARM.attributes
                0x0000004a       0x31 src/ADC_GPIO.o
 .ARM.attributes
                0x0000007b       0x31 src/ASF/sam0/drivers/adc/adc_sam_b/adc_sam_b.o
 .ARM.attributes
                0x000000ac       0x31 src/ASF/sam0/drivers/dualtimer/dualtimer.o
 .ARM.attributes
                0x000000dd       0x31 src/ASF/sam0/drivers/gpio/gpio.o
 .ARM.attributes
                0x0000010e       0x31 src/ASF/sam0/drivers/system/system_sam_b.o
 .ARM.attributes
                0x0000013f       0x31 src/ASF/sam0/drivers/uart/uart.o
 .ARM.attributes
                0x00000170       0x31 src/ASF/sam0/utils/cmsis/samb11/source/gcc/startup_samb11.o
 .ARM.attributes
                0x000001a1       0x31 src/ASF/sam0/utils/stdio/read.o
 .ARM.attributes
                0x000001d2       0x31 src/ASF/sam0/utils/stdio/write.o
 .ARM.attributes
                0x00000203       0x31 src/ASF/sam0/utils/syscalls/gcc/syscalls.o
 .ARM.attributes
                0x00000234       0x31 src/ASF/thirdparty/wireless/ble_smart_sdk/ble_services/ble_mgr/ble_manager.o
 .ARM.attributes
                0x00000265       0x31 src/ASF/thirdparty/wireless/ble_smart_sdk/services/dualtimer/timer_hw.o
 .ARM.attributes
                0x00000296       0x31 src/ASF/thirdparty/wireless/ble_smart_sdk/services/gpio/button.o
 .ARM.attributes
                0x000002c7       0x31 src/ASF/thirdparty/wireless/ble_smart_sdk/services/uart/console_serial.o
 .ARM.attributes
                0x000002f8       0x31 src/ASF/thirdparty/wireless/ble_smart_sdk/src/event_handler.o
 .ARM.attributes
                0x00000329       0x31 src/ASF/thirdparty/wireless/ble_smart_sdk/src/platform_drv.o
 .ARM.attributes
                0x0000035a       0x31 src/ASF/thirdparty/wireless/ble_smart_sdk/src/port_from_sdk.o
 .ARM.attributes
                0x0000038b       0x31 src/BLE.o
 .ARM.attributes
                0x000003bc       0x31 src/Buttons.o
 .ARM.attributes
                0x000003ed       0x31 src/LED.o
 .ARM.attributes
                0x0000041e       0x31 src/LSM9DS1.o
 .ARM.attributes
                0x0000044f       0x31 src/main_sam_b.o
 .ARM.attributes
                0x00000480       0x31 C:\Senior-Design\Cymote\Cymote2\Cymote2\src\ASF\thirdparty\wireless\ble_smart_sdk\lib\cm0\gcc\libblusdk.a(event.o)
 .ARM.attributes
                0x000004b1       0x31 C:\Senior-Design\Cymote\Cymote2\Cymote2\src\ASF\thirdparty\wireless\ble_smart_sdk\lib\cm0\gcc\libblusdk.a(gap.o)
 .ARM.attributes
                0x000004e2       0x31 C:\Senior-Design\Cymote\Cymote2\Cymote2\src\ASF\thirdparty\wireless\ble_smart_sdk\lib\cm0\gcc\libblusdk.a(gatt_client.o)
 .ARM.attributes
                0x00000513       0x31 C:\Senior-Design\Cymote\Cymote2\Cymote2\src\ASF\thirdparty\wireless\ble_smart_sdk\lib\cm0\gcc\libblusdk.a(gatt_server.o)
 .ARM.attributes
                0x00000544       0x31 C:\Senior-Design\Cymote\Cymote2\Cymote2\src\ASF\thirdparty\wireless\ble_smart_sdk\lib\cm0\gcc\libblusdk.a(l2cc_task.o)
 .ARM.attributes
                0x00000575       0x31 C:\Senior-Design\Cymote\Cymote2\Cymote2\src\ASF\thirdparty\wireless\ble_smart_sdk\lib\cm0\gcc\libblusdk.a(security.o)
 .ARM.attributes
                0x000005a6       0x31 C:\Senior-Design\Cymote\Cymote2\Cymote2\src\ASF\thirdparty\wireless\ble_smart_sdk\lib\cm0\gcc\libblusdk.a(interface.o)
 .ARM.attributes
                0x000005d7       0x31 C:\Senior-Design\Cymote\Cymote2\Cymote2\src\ASF\thirdparty\wireless\ble_smart_sdk\lib\cm0\gcc\libblusdk.a(dbg_task.o)
 .ARM.attributes
                0x00000608       0x31 C:\Senior-Design\Cymote\Cymote2\Cymote2\src\ASF\thirdparty\wireless\ble_smart_sdk\lib\cm0\gcc\libblusdk.a(gapc_task.o)
 .ARM.attributes
                0x00000639       0x31 C:\Senior-Design\Cymote\Cymote2\Cymote2\src\ASF\thirdparty\wireless\ble_smart_sdk\lib\cm0\gcc\libblusdk.a(gapm_task.o)
 .ARM.attributes
                0x0000066a       0x31 C:\Senior-Design\Cymote\Cymote2\Cymote2\src\ASF\thirdparty\wireless\ble_smart_sdk\lib\cm0\gcc\libblusdk.a(gattc_task.o)
 .ARM.attributes
                0x0000069b       0x31 C:\Senior-Design\Cymote\Cymote2\Cymote2\src\ASF\thirdparty\wireless\ble_smart_sdk\lib\cm0\gcc\libblusdk.a(gattm_task.o)
 .ARM.attributes
                0x000006cc       0x31 C:\Senior-Design\Cymote\Cymote2\Cymote2\src\ASF\thirdparty\wireless\ble_smart_sdk\lib\cm0\gcc\libblusdk.a(htpt_task.o)
 .ARM.attributes
                0x000006fd       0x1e c:/program files (x86)/atmel/studio/7.0/toolchain/arm/arm-gnu-toolchain/bin/../lib/gcc/arm-none-eabi/5.3.1/armv6-m\libgcc.a(_thumb1_case_sqi.o)
 .ARM.attributes
                0x0000071b       0x1e c:/program files (x86)/atmel/studio/7.0/toolchain/arm/arm-gnu-toolchain/bin/../lib/gcc/arm-none-eabi/5.3.1/armv6-m\libgcc.a(_thumb1_case_uqi.o)
 .ARM.attributes
                0x00000739       0x1e c:/program files (x86)/atmel/studio/7.0/toolchain/arm/arm-gnu-toolchain/bin/../lib/gcc/arm-none-eabi/5.3.1/armv6-m\libgcc.a(_thumb1_case_uhi.o)
 .ARM.attributes
                0x00000757       0x1e c:/program files (x86)/atmel/studio/7.0/toolchain/arm/arm-gnu-toolchain/bin/../lib/gcc/arm-none-eabi/5.3.1/armv6-m\libgcc.a(_udivsi3.o)
 .ARM.attributes
                0x00000775       0x1e c:/program files (x86)/atmel/studio/7.0/toolchain/arm/arm-gnu-toolchain/bin/../lib/gcc/arm-none-eabi/5.3.1/armv6-m\libgcc.a(_dvmd_tls.o)
 .ARM.attributes
                0x00000793       0x2c c:/program files (x86)/atmel/studio/7.0/toolchain/arm/arm-gnu-toolchain/bin/../lib/gcc/arm-none-eabi/5.3.1/armv6-m\libgcc.a(_fixunsdfsi.o)
 .ARM.attributes
                0x000007bf       0x2c c:/program files (x86)/atmel/studio/7.0/toolchain/arm/arm-gnu-toolchain/bin/../lib/gcc/arm-none-eabi/5.3.1/armv6-m\libgcc.a(muldf3.o)
 .ARM.attributes
                0x000007eb       0x2c c:/program files (x86)/atmel/studio/7.0/toolchain/arm/arm-gnu-toolchain/bin/../lib/gcc/arm-none-eabi/5.3.1/armv6-m\libgcc.a(subdf3.o)
 .ARM.attributes
                0x00000817       0x2c c:/program files (x86)/atmel/studio/7.0/toolchain/arm/arm-gnu-toolchain/bin/../lib/gcc/arm-none-eabi/5.3.1/armv6-m\libgcc.a(fixdfsi.o)
 .ARM.attributes
                0x00000843       0x2c c:/program files (x86)/atmel/studio/7.0/toolchain/arm/arm-gnu-toolchain/bin/../lib/gcc/arm-none-eabi/5.3.1/armv6-m\libgcc.a(floatunsidf.o)
 .ARM.attributes
                0x0000086f       0x1e c:/program files (x86)/atmel/studio/7.0/toolchain/arm/arm-gnu-toolchain/bin/../lib/gcc/arm-none-eabi/5.3.1/armv6-m\libgcc.a(_arm_cmpdf2.o)
 .ARM.attributes
                0x0000088d       0x1e c:/program files (x86)/atmel/studio/7.0/toolchain/arm/arm-gnu-toolchain/bin/../lib/gcc/arm-none-eabi/5.3.1/armv6-m\libgcc.a(_clzsi2.o)
 .ARM.attributes
                0x000008ab       0x2c c:/program files (x86)/atmel/studio/7.0/toolchain/arm/arm-gnu-toolchain/bin/../lib/gcc/arm-none-eabi/5.3.1/armv6-m\libgcc.a(eqdf2.o)
 .ARM.attributes
                0x000008d7       0x2c c:/program files (x86)/atmel/studio/7.0/toolchain/arm/arm-gnu-toolchain/bin/../lib/gcc/arm-none-eabi/5.3.1/armv6-m\libgcc.a(gedf2.o)
 .ARM.attributes
                0x00000903       0x2c c:/program files (x86)/atmel/studio/7.0/toolchain/arm/arm-gnu-toolchain/bin/../lib/gcc/arm-none-eabi/5.3.1/armv6-m\libgcc.a(ledf2.o)
 .ARM.attributes
                0x0000092f       0x2c c:/program files (x86)/atmel/studio/7.0/toolchain/arm/arm-gnu-toolchain/bin/../lib/gcc/arm-none-eabi/5.3.1/../../../../arm-none-eabi/lib/armv6-m\libc_nano.a(lib_a-fflush.o)
 .ARM.attributes
                0x0000095b       0x2c c:/program files (x86)/atmel/studio/7.0/toolchain/arm/arm-gnu-toolchain/bin/../lib/gcc/arm-none-eabi/5.3.1/../../../../arm-none-eabi/lib/armv6-m\libc_nano.a(lib_a-findfp.o)
 .ARM.attributes
                0x00000987       0x2c c:/program files (x86)/atmel/studio/7.0/toolchain/arm/arm-gnu-toolchain/bin/../lib/gcc/arm-none-eabi/5.3.1/../../../../arm-none-eabi/lib/armv6-m\libc_nano.a(lib_a-fwalk.o)
 .ARM.attributes
                0x000009b3       0x2c c:/program files (x86)/atmel/studio/7.0/toolchain/arm/arm-gnu-toolchain/bin/../lib/gcc/arm-none-eabi/5.3.1/../../../../arm-none-eabi/lib/armv6-m\libc_nano.a(lib_a-impure.o)
 .ARM.attributes
                0x000009df       0x2c c:/program files (x86)/atmel/studio/7.0/toolchain/arm/arm-gnu-toolchain/bin/../lib/gcc/arm-none-eabi/5.3.1/../../../../arm-none-eabi/lib/armv6-m\libc_nano.a(lib_a-init.o)
 .ARM.attributes
                0x00000a0b       0x2c c:/program files (x86)/atmel/studio/7.0/toolchain/arm/arm-gnu-toolchain/bin/../lib/gcc/arm-none-eabi/5.3.1/../../../../arm-none-eabi/lib/armv6-m\libc_nano.a(lib_a-memcmp.o)
 .ARM.attributes
                0x00000a37       0x2c c:/program files (x86)/atmel/studio/7.0/toolchain/arm/arm-gnu-toolchain/bin/../lib/gcc/arm-none-eabi/5.3.1/../../../../arm-none-eabi/lib/armv6-m\libc_nano.a(lib_a-memcpy-stub.o)
 .ARM.attributes
                0x00000a63       0x2c c:/program files (x86)/atmel/studio/7.0/toolchain/arm/arm-gnu-toolchain/bin/../lib/gcc/arm-none-eabi/5.3.1/../../../../arm-none-eabi/lib/armv6-m\libc_nano.a(lib_a-memset.o)
 .ARM.attributes
                0x00000a8f       0x2c c:/program files (x86)/atmel/studio/7.0/toolchain/arm/arm-gnu-toolchain/bin/../lib/gcc/arm-none-eabi/5.3.1/../../../../arm-none-eabi/lib/armv6-m\libc_nano.a(lib_a-nano-freer.o)
 .ARM.attributes
                0x00000abb       0x2c c:/program files (x86)/atmel/studio/7.0/toolchain/arm/arm-gnu-toolchain/bin/../lib/gcc/arm-none-eabi/5.3.1/../../../../arm-none-eabi/lib/armv6-m\libc_nano.a(lib_a-nano-mallocr.o)
 .ARM.attributes
                0x00000ae7       0x2c c:/program files (x86)/atmel/studio/7.0/toolchain/arm/arm-gnu-toolchain/bin/../lib/gcc/arm-none-eabi/5.3.1/../../../../arm-none-eabi/lib/armv6-m\libc_nano.a(lib_a-printf.o)
 .ARM.attributes
                0x00000b13       0x2c c:/program files (x86)/atmel/studio/7.0/toolchain/arm/arm-gnu-toolchain/bin/../lib/gcc/arm-none-eabi/5.3.1/../../../../arm-none-eabi/lib/armv6-m\libc_nano.a(lib_a-putchar.o)
 .ARM.attributes
                0x00000b3f       0x2c c:/program files (x86)/atmel/studio/7.0/toolchain/arm/arm-gnu-toolchain/bin/../lib/gcc/arm-none-eabi/5.3.1/../../../../arm-none-eabi/lib/armv6-m\libc_nano.a(lib_a-puts.o)
 .ARM.attributes
                0x00000b6b       0x2c c:/program files (x86)/atmel/studio/7.0/toolchain/arm/arm-gnu-toolchain/bin/../lib/gcc/arm-none-eabi/5.3.1/../../../../arm-none-eabi/lib/armv6-m\libc_nano.a(lib_a-rand.o)
 .ARM.attributes
                0x00000b97       0x2c c:/program files (x86)/atmel/studio/7.0/toolchain/arm/arm-gnu-toolchain/bin/../lib/gcc/arm-none-eabi/5.3.1/../../../../arm-none-eabi/lib/armv6-m\libc_nano.a(lib_a-sbrkr.o)
 .ARM.attributes
                0x00000bc3       0x2c c:/program files (x86)/atmel/studio/7.0/toolchain/arm/arm-gnu-toolchain/bin/../lib/gcc/arm-none-eabi/5.3.1/../../../../arm-none-eabi/lib/armv6-m\libc_nano.a(lib_a-setbuf.o)
 .ARM.attributes
                0x00000bef       0x2c c:/program files (x86)/atmel/studio/7.0/toolchain/arm/arm-gnu-toolchain/bin/../lib/gcc/arm-none-eabi/5.3.1/../../../../arm-none-eabi/lib/armv6-m\libc_nano.a(lib_a-setvbuf.o)
 .ARM.attributes
                0x00000c1b       0x2c c:/program files (x86)/atmel/studio/7.0/toolchain/arm/arm-gnu-toolchain/bin/../lib/gcc/arm-none-eabi/5.3.1/../../../../arm-none-eabi/lib/armv6-m\libc_nano.a(lib_a-snprintf.o)
 .ARM.attributes
                0x00000c47       0x2c c:/program files (x86)/atmel/studio/7.0/toolchain/arm/arm-gnu-toolchain/bin/../lib/gcc/arm-none-eabi/5.3.1/../../../../arm-none-eabi/lib/armv6-m\libc_nano.a(lib_a-stdio.o)
 .ARM.attributes
                0x00000c73       0x1c c:/program files (x86)/atmel/studio/7.0/toolchain/arm/arm-gnu-toolchain/bin/../lib/gcc/arm-none-eabi/5.3.1/../../../../arm-none-eabi/lib/armv6-m\libc_nano.a(lib_a-strlen.o)
 .ARM.attributes
                0x00000c8f       0x2c c:/program files (x86)/atmel/studio/7.0/toolchain/arm/arm-gnu-toolchain/bin/../lib/gcc/arm-none-eabi/5.3.1/../../../../arm-none-eabi/lib/armv6-m\libc_nano.a(lib_a-wbuf.o)
 .ARM.attributes
                0x00000cbb       0x2c c:/program files (x86)/atmel/studio/7.0/toolchain/arm/arm-gnu-toolchain/bin/../lib/gcc/arm-none-eabi/5.3.1/../../../../arm-none-eabi/lib/armv6-m\libc_nano.a(lib_a-writer.o)
 .ARM.attributes
                0x00000ce7       0x2c c:/program files (x86)/atmel/studio/7.0/toolchain/arm/arm-gnu-toolchain/bin/../lib/gcc/arm-none-eabi/5.3.1/../../../../arm-none-eabi/lib/armv6-m\libc_nano.a(lib_a-wsetup.o)
 .ARM.attributes
                0x00000d13       0x2c c:/program files (x86)/atmel/studio/7.0/toolchain/arm/arm-gnu-toolchain/bin/../lib/gcc/arm-none-eabi/5.3.1/../../../../arm-none-eabi/lib/armv6-m\libc_nano.a(lib_a-closer.o)
 .ARM.attributes
                0x00000d3f       0x2c c:/program files (x86)/atmel/studio/7.0/toolchain/arm/arm-gnu-toolchain/bin/../lib/gcc/arm-none-eabi/5.3.1/../../../../arm-none-eabi/lib/armv6-m\libc_nano.a(lib_a-lseekr.o)
 .ARM.attributes
                0x00000d6b       0x2c c:/program files (x86)/atmel/studio/7.0/toolchain/arm/arm-gnu-toolchain/bin/../lib/gcc/arm-none-eabi/5.3.1/../../../../arm-none-eabi/lib/armv6-m\libc_nano.a(lib_a-makebuf.o)
 .ARM.attributes
                0x00000d97       0x2c c:/program files (x86)/atmel/studio/7.0/toolchain/arm/arm-gnu-toolchain/bin/../lib/gcc/arm-none-eabi/5.3.1/../../../../arm-none-eabi/lib/armv6-m\libc_nano.a(lib_a-malloc.o)
 .ARM.attributes
                0x00000dc3       0x2c c:/program files (x86)/atmel/studio/7.0/toolchain/arm/arm-gnu-toolchain/bin/../lib/gcc/arm-none-eabi/5.3.1/../../../../arm-none-eabi/lib/armv6-m\libc_nano.a(lib_a-nano-svfprintf.o)
 .ARM.attributes
                0x00000def       0x2c c:/program files (x86)/atmel/studio/7.0/toolchain/arm/arm-gnu-toolchain/bin/../lib/gcc/arm-none-eabi/5.3.1/../../../../arm-none-eabi/lib/armv6-m\libc_nano.a(lib_a-nano-vfprintf.o)
 .ARM.attributes
                0x00000e1b       0x2c c:/program files (x86)/atmel/studio/7.0/toolchain/arm/arm-gnu-toolchain/bin/../lib/gcc/arm-none-eabi/5.3.1/../../../../arm-none-eabi/lib/armv6-m\libc_nano.a(lib_a-nano-vfprintf_i.o)
 .ARM.attributes
                0x00000e47       0x2c c:/program files (x86)/atmel/studio/7.0/toolchain/arm/arm-gnu-toolchain/bin/../lib/gcc/arm-none-eabi/5.3.1/../../../../arm-none-eabi/lib/armv6-m\libc_nano.a(lib_a-putc.o)
 .ARM.attributes
                0x00000e73       0x2c c:/program files (x86)/atmel/studio/7.0/toolchain/arm/arm-gnu-toolchain/bin/../lib/gcc/arm-none-eabi/5.3.1/../../../../arm-none-eabi/lib/armv6-m\libc_nano.a(lib_a-readr.o)
 .ARM.attributes
                0x00000e9f       0x2c c:/program files (x86)/atmel/studio/7.0/toolchain/arm/arm-gnu-toolchain/bin/../lib/gcc/arm-none-eabi/5.3.1/../../../../arm-none-eabi/lib/armv6-m\libc_nano.a(lib_a-reent.o)
 .ARM.attributes
                0x00000ecb       0x2c c:/program files (x86)/atmel/studio/7.0/toolchain/arm/arm-gnu-toolchain/bin/../lib/gcc/arm-none-eabi/5.3.1/../../../../arm-none-eabi/lib/armv6-m\libc_nano.a(lib_a-fstatr.o)
 .ARM.attributes
                0x00000ef7       0x2c c:/program files (x86)/atmel/studio/7.0/toolchain/arm/arm-gnu-toolchain/bin/../lib/gcc/arm-none-eabi/5.3.1/../../../../arm-none-eabi/lib/armv6-m\libc_nano.a(lib_a-isattyr.o)
 .ARM.attributes
                0x00000f23       0x2c c:/program files (x86)/atmel/studio/7.0/toolchain/arm/arm-gnu-toolchain/bin/../lib/gcc/arm-none-eabi/5.3.1/../../../../arm-none-eabi/lib/armv6-m\libc_nano.a(lib_a-memchr-stub.o)
 .ARM.attributes
                0x00000f4f       0x2c c:/program files (x86)/atmel/studio/7.0/toolchain/arm/arm-gnu-toolchain/bin/../lib/gcc/arm-none-eabi/5.3.1/../../../../arm-none-eabi/lib/armv6-m\libc_nano.a(lib_a-memmove.o)
 .ARM.attributes
                0x00000f7b       0x2c c:/program files (x86)/atmel/studio/7.0/toolchain/arm/arm-gnu-toolchain/bin/../lib/gcc/arm-none-eabi/5.3.1/../../../../arm-none-eabi/lib/armv6-m\libc_nano.a(lib_a-nano-reallocr.o)
 .ARM.attributes
                0x00000fa7       0x2c c:/program files (x86)/atmel/studio/7.0/toolchain/arm/arm-gnu-toolchain/bin/../lib/gcc/arm-none-eabi/5.3.1/../../../../arm-none-eabi/lib/armv6-m\libc_nano.a(lib_a-nano-msizer.o)
 .ARM.attributes
                0x00000fd3       0x2c c:/program files (x86)/atmel/studio/7.0/toolchain/arm/arm-gnu-toolchain/bin/../lib/gcc/arm-none-eabi/5.3.1/armv6-m\libgcc.a(_muldi3.o)
 .ARM.attributes
                0x00000fff       0x1e c:/program files (x86)/atmel/studio/7.0/toolchain/arm/arm-gnu-toolchain/bin/../lib/gcc/arm-none-eabi/5.3.1/armv6-m/crtn.o

.comment        0x00000000       0xb4
 .comment       0x00000000       0x59 src/ADC_GPIO.o
                                 0x5a (size before relaxing)
 .comment       0x00000059       0x5a src/ASF/sam0/drivers/adc/adc_sam_b/adc_sam_b.o
 .comment       0x00000059       0x5a src/ASF/sam0/drivers/dualtimer/dualtimer.o
 .comment       0x00000059       0x5a src/ASF/sam0/drivers/gpio/gpio.o
 .comment       0x00000059       0x5a src/ASF/sam0/drivers/system/system_sam_b.o
 .comment       0x00000059       0x5a src/ASF/sam0/drivers/uart/uart.o
 .comment       0x00000059       0x5a src/ASF/sam0/utils/cmsis/samb11/source/gcc/startup_samb11.o
 .comment       0x00000059       0x5a src/ASF/sam0/utils/stdio/read.o
 .comment       0x00000059       0x5a src/ASF/sam0/utils/stdio/write.o
 .comment       0x00000059       0x5a src/ASF/sam0/utils/syscalls/gcc/syscalls.o
 .comment       0x00000059       0x5a src/ASF/thirdparty/wireless/ble_smart_sdk/ble_services/ble_mgr/ble_manager.o
 .comment       0x00000059       0x5a src/ASF/thirdparty/wireless/ble_smart_sdk/services/dualtimer/timer_hw.o
 .comment       0x00000059       0x5a src/ASF/thirdparty/wireless/ble_smart_sdk/services/gpio/button.o
 .comment       0x00000059       0x5a src/ASF/thirdparty/wireless/ble_smart_sdk/services/uart/console_serial.o
 .comment       0x00000059       0x5a src/ASF/thirdparty/wireless/ble_smart_sdk/src/event_handler.o
 .comment       0x00000059       0x5a src/ASF/thirdparty/wireless/ble_smart_sdk/src/platform_drv.o
 .comment       0x00000059       0x5a src/ASF/thirdparty/wireless/ble_smart_sdk/src/port_from_sdk.o
 .comment       0x00000059       0x5a src/BLE.o
 .comment       0x00000059       0x5a src/Buttons.o
 .comment       0x00000059       0x5a src/LED.o
 .comment       0x00000059       0x5a src/LSM9DS1.o
 .comment       0x00000059       0x5a src/main_sam_b.o
 .comment       0x00000059       0x5b C:\Senior-Design\Cymote\Cymote2\Cymote2\src\ASF\thirdparty\wireless\ble_smart_sdk\lib\cm0\gcc\libblusdk.a(event.o)
                                 0x5c (size before relaxing)
 .comment       0x000000b4       0x5c C:\Senior-Design\Cymote\Cymote2\Cymote2\src\ASF\thirdparty\wireless\ble_smart_sdk\lib\cm0\gcc\libblusdk.a(gap.o)
 .comment       0x000000b4       0x5c C:\Senior-Design\Cymote\Cymote2\Cymote2\src\ASF\thirdparty\wireless\ble_smart_sdk\lib\cm0\gcc\libblusdk.a(gatt_client.o)
 .comment       0x000000b4       0x5c C:\Senior-Design\Cymote\Cymote2\Cymote2\src\ASF\thirdparty\wireless\ble_smart_sdk\lib\cm0\gcc\libblusdk.a(gatt_server.o)
 .comment       0x000000b4       0x5c C:\Senior-Design\Cymote\Cymote2\Cymote2\src\ASF\thirdparty\wireless\ble_smart_sdk\lib\cm0\gcc\libblusdk.a(l2cc_task.o)
 .comment       0x000000b4       0x5c C:\Senior-Design\Cymote\Cymote2\Cymote2\src\ASF\thirdparty\wireless\ble_smart_sdk\lib\cm0\gcc\libblusdk.a(security.o)
 .comment       0x000000b4       0x5c C:\Senior-Design\Cymote\Cymote2\Cymote2\src\ASF\thirdparty\wireless\ble_smart_sdk\lib\cm0\gcc\libblusdk.a(interface.o)
 .comment       0x000000b4       0x5c C:\Senior-Design\Cymote\Cymote2\Cymote2\src\ASF\thirdparty\wireless\ble_smart_sdk\lib\cm0\gcc\libblusdk.a(dbg_task.o)
 .comment       0x000000b4       0x5c C:\Senior-Design\Cymote\Cymote2\Cymote2\src\ASF\thirdparty\wireless\ble_smart_sdk\lib\cm0\gcc\libblusdk.a(gapc_task.o)
 .comment       0x000000b4       0x5c C:\Senior-Design\Cymote\Cymote2\Cymote2\src\ASF\thirdparty\wireless\ble_smart_sdk\lib\cm0\gcc\libblusdk.a(gapm_task.o)
 .comment       0x000000b4       0x5c C:\Senior-Design\Cymote\Cymote2\Cymote2\src\ASF\thirdparty\wireless\ble_smart_sdk\lib\cm0\gcc\libblusdk.a(gattc_task.o)
 .comment       0x000000b4       0x5c C:\Senior-Design\Cymote\Cymote2\Cymote2\src\ASF\thirdparty\wireless\ble_smart_sdk\lib\cm0\gcc\libblusdk.a(gattm_task.o)
 .comment       0x000000b4       0x5c C:\Senior-Design\Cymote\Cymote2\Cymote2\src\ASF\thirdparty\wireless\ble_smart_sdk\lib\cm0\gcc\libblusdk.a(htpt_task.o)

.debug_frame    0x00000000      0xc08
 .debug_frame   0x00000000       0x20 c:/program files (x86)/atmel/studio/7.0/toolchain/arm/arm-gnu-toolchain/bin/../lib/gcc/arm-none-eabi/5.3.1/armv6-m\libgcc.a(_udivsi3.o)
 .debug_frame   0x00000020       0x2c c:/program files (x86)/atmel/studio/7.0/toolchain/arm/arm-gnu-toolchain/bin/../lib/gcc/arm-none-eabi/5.3.1/armv6-m\libgcc.a(_fixunsdfsi.o)
 .debug_frame   0x0000004c       0x3c c:/program files (x86)/atmel/studio/7.0/toolchain/arm/arm-gnu-toolchain/bin/../lib/gcc/arm-none-eabi/5.3.1/armv6-m\libgcc.a(muldf3.o)
 .debug_frame   0x00000088       0x38 c:/program files (x86)/atmel/studio/7.0/toolchain/arm/arm-gnu-toolchain/bin/../lib/gcc/arm-none-eabi/5.3.1/armv6-m\libgcc.a(subdf3.o)
 .debug_frame   0x000000c0       0x2c c:/program files (x86)/atmel/studio/7.0/toolchain/arm/arm-gnu-toolchain/bin/../lib/gcc/arm-none-eabi/5.3.1/armv6-m\libgcc.a(fixdfsi.o)
 .debug_frame   0x000000ec       0x2c c:/program files (x86)/atmel/studio/7.0/toolchain/arm/arm-gnu-toolchain/bin/../lib/gcc/arm-none-eabi/5.3.1/armv6-m\libgcc.a(floatunsidf.o)
 .debug_frame   0x00000118       0x38 c:/program files (x86)/atmel/studio/7.0/toolchain/arm/arm-gnu-toolchain/bin/../lib/gcc/arm-none-eabi/5.3.1/armv6-m\libgcc.a(eqdf2.o)
 .debug_frame   0x00000150       0x38 c:/program files (x86)/atmel/studio/7.0/toolchain/arm/arm-gnu-toolchain/bin/../lib/gcc/arm-none-eabi/5.3.1/armv6-m\libgcc.a(gedf2.o)
 .debug_frame   0x00000188       0x38 c:/program files (x86)/atmel/studio/7.0/toolchain/arm/arm-gnu-toolchain/bin/../lib/gcc/arm-none-eabi/5.3.1/armv6-m\libgcc.a(ledf2.o)
 .debug_frame   0x000001c0       0x68 c:/program files (x86)/atmel/studio/7.0/toolchain/arm/arm-gnu-toolchain/bin/../lib/gcc/arm-none-eabi/5.3.1/../../../../arm-none-eabi/lib/armv6-m\libc_nano.a(lib_a-fflush.o)
 .debug_frame   0x00000228      0x140 c:/program files (x86)/atmel/studio/7.0/toolchain/arm/arm-gnu-toolchain/bin/../lib/gcc/arm-none-eabi/5.3.1/../../../../arm-none-eabi/lib/armv6-m\libc_nano.a(lib_a-findfp.o)
 .debug_frame   0x00000368       0x58 c:/program files (x86)/atmel/studio/7.0/toolchain/arm/arm-gnu-toolchain/bin/../lib/gcc/arm-none-eabi/5.3.1/../../../../arm-none-eabi/lib/armv6-m\libc_nano.a(lib_a-fwalk.o)
 .debug_frame   0x000003c0       0x2c c:/program files (x86)/atmel/studio/7.0/toolchain/arm/arm-gnu-toolchain/bin/../lib/gcc/arm-none-eabi/5.3.1/../../../../arm-none-eabi/lib/armv6-m\libc_nano.a(lib_a-init.o)
 .debug_frame   0x000003ec       0x2c c:/program files (x86)/atmel/studio/7.0/toolchain/arm/arm-gnu-toolchain/bin/../lib/gcc/arm-none-eabi/5.3.1/../../../../arm-none-eabi/lib/armv6-m\libc_nano.a(lib_a-memcmp.o)
 .debug_frame   0x00000418       0x28 c:/program files (x86)/atmel/studio/7.0/toolchain/arm/arm-gnu-toolchain/bin/../lib/gcc/arm-none-eabi/5.3.1/../../../../arm-none-eabi/lib/armv6-m\libc_nano.a(lib_a-memcpy-stub.o)
 .debug_frame   0x00000440       0x20 c:/program files (x86)/atmel/studio/7.0/toolchain/arm/arm-gnu-toolchain/bin/../lib/gcc/arm-none-eabi/5.3.1/../../../../arm-none-eabi/lib/armv6-m\libc_nano.a(lib_a-memset.o)
 .debug_frame   0x00000460       0x2c c:/program files (x86)/atmel/studio/7.0/toolchain/arm/arm-gnu-toolchain/bin/../lib/gcc/arm-none-eabi/5.3.1/../../../../arm-none-eabi/lib/armv6-m\libc_nano.a(lib_a-nano-freer.o)
 .debug_frame   0x0000048c       0x2c c:/program files (x86)/atmel/studio/7.0/toolchain/arm/arm-gnu-toolchain/bin/../lib/gcc/arm-none-eabi/5.3.1/../../../../arm-none-eabi/lib/armv6-m\libc_nano.a(lib_a-nano-mallocr.o)
 .debug_frame   0x000004b8       0x50 c:/program files (x86)/atmel/studio/7.0/toolchain/arm/arm-gnu-toolchain/bin/../lib/gcc/arm-none-eabi/5.3.1/../../../../arm-none-eabi/lib/armv6-m\libc_nano.a(lib_a-printf.o)
 .debug_frame   0x00000508       0x48 c:/program files (x86)/atmel/studio/7.0/toolchain/arm/arm-gnu-toolchain/bin/../lib/gcc/arm-none-eabi/5.3.1/../../../../arm-none-eabi/lib/armv6-m\libc_nano.a(lib_a-putchar.o)
 .debug_frame   0x00000550       0x44 c:/program files (x86)/atmel/studio/7.0/toolchain/arm/arm-gnu-toolchain/bin/../lib/gcc/arm-none-eabi/5.3.1/../../../../arm-none-eabi/lib/armv6-m\libc_nano.a(lib_a-puts.o)
 .debug_frame   0x00000594       0x44 c:/program files (x86)/atmel/studio/7.0/toolchain/arm/arm-gnu-toolchain/bin/../lib/gcc/arm-none-eabi/5.3.1/../../../../arm-none-eabi/lib/armv6-m\libc_nano.a(lib_a-rand.o)
 .debug_frame   0x000005d8       0x2c c:/program files (x86)/atmel/studio/7.0/toolchain/arm/arm-gnu-toolchain/bin/../lib/gcc/arm-none-eabi/5.3.1/../../../../arm-none-eabi/lib/armv6-m\libc_nano.a(lib_a-sbrkr.o)
 .debug_frame   0x00000604       0x28 c:/program files (x86)/atmel/studio/7.0/toolchain/arm/arm-gnu-toolchain/bin/../lib/gcc/arm-none-eabi/5.3.1/../../../../arm-none-eabi/lib/armv6-m\libc_nano.a(lib_a-setbuf.o)
 .debug_frame   0x0000062c       0x30 c:/program files (x86)/atmel/studio/7.0/toolchain/arm/arm-gnu-toolchain/bin/../lib/gcc/arm-none-eabi/5.3.1/../../../../arm-none-eabi/lib/armv6-m\libc_nano.a(lib_a-setvbuf.o)
 .debug_frame   0x0000065c       0x50 c:/program files (x86)/atmel/studio/7.0/toolchain/arm/arm-gnu-toolchain/bin/../lib/gcc/arm-none-eabi/5.3.1/../../../../arm-none-eabi/lib/armv6-m\libc_nano.a(lib_a-snprintf.o)
 .debug_frame   0x000006ac       0x90 c:/program files (x86)/atmel/studio/7.0/toolchain/arm/arm-gnu-toolchain/bin/../lib/gcc/arm-none-eabi/5.3.1/../../../../arm-none-eabi/lib/armv6-m\libc_nano.a(lib_a-stdio.o)
 .debug_frame   0x0000073c       0x48 c:/program files (x86)/atmel/studio/7.0/toolchain/arm/arm-gnu-toolchain/bin/../lib/gcc/arm-none-eabi/5.3.1/../../../../arm-none-eabi/lib/armv6-m\libc_nano.a(lib_a-wbuf.o)
 .debug_frame   0x00000784       0x2c c:/program files (x86)/atmel/studio/7.0/toolchain/arm/arm-gnu-toolchain/bin/../lib/gcc/arm-none-eabi/5.3.1/../../../../arm-none-eabi/lib/armv6-m\libc_nano.a(lib_a-writer.o)
 .debug_frame   0x000007b0       0x2c c:/program files (x86)/atmel/studio/7.0/toolchain/arm/arm-gnu-toolchain/bin/../lib/gcc/arm-none-eabi/5.3.1/../../../../arm-none-eabi/lib/armv6-m\libc_nano.a(lib_a-wsetup.o)
 .debug_frame   0x000007dc       0x2c c:/program files (x86)/atmel/studio/7.0/toolchain/arm/arm-gnu-toolchain/bin/../lib/gcc/arm-none-eabi/5.3.1/../../../../arm-none-eabi/lib/armv6-m\libc_nano.a(lib_a-closer.o)
 .debug_frame   0x00000808       0x2c c:/program files (x86)/atmel/studio/7.0/toolchain/arm/arm-gnu-toolchain/bin/../lib/gcc/arm-none-eabi/5.3.1/../../../../arm-none-eabi/lib/armv6-m\libc_nano.a(lib_a-lseekr.o)
 .debug_frame   0x00000834       0x54 c:/program files (x86)/atmel/studio/7.0/toolchain/arm/arm-gnu-toolchain/bin/../lib/gcc/arm-none-eabi/5.3.1/../../../../arm-none-eabi/lib/armv6-m\libc_nano.a(lib_a-makebuf.o)
 .debug_frame   0x00000888       0x40 c:/program files (x86)/atmel/studio/7.0/toolchain/arm/arm-gnu-toolchain/bin/../lib/gcc/arm-none-eabi/5.3.1/../../../../arm-none-eabi/lib/armv6-m\libc_nano.a(lib_a-malloc.o)
 .debug_frame   0x000008c8       0x74 c:/program files (x86)/atmel/studio/7.0/toolchain/arm/arm-gnu-toolchain/bin/../lib/gcc/arm-none-eabi/5.3.1/../../../../arm-none-eabi/lib/armv6-m\libc_nano.a(lib_a-nano-svfprintf.o)
 .debug_frame   0x0000093c       0x9c c:/program files (x86)/atmel/studio/7.0/toolchain/arm/arm-gnu-toolchain/bin/../lib/gcc/arm-none-eabi/5.3.1/../../../../arm-none-eabi/lib/armv6-m\libc_nano.a(lib_a-nano-vfprintf.o)
 .debug_frame   0x000009d8       0x54 c:/program files (x86)/atmel/studio/7.0/toolchain/arm/arm-gnu-toolchain/bin/../lib/gcc/arm-none-eabi/5.3.1/../../../../arm-none-eabi/lib/armv6-m\libc_nano.a(lib_a-nano-vfprintf_i.o)
 .debug_frame   0x00000a2c       0x44 c:/program files (x86)/atmel/studio/7.0/toolchain/arm/arm-gnu-toolchain/bin/../lib/gcc/arm-none-eabi/5.3.1/../../../../arm-none-eabi/lib/armv6-m\libc_nano.a(lib_a-putc.o)
 .debug_frame   0x00000a70       0x2c c:/program files (x86)/atmel/studio/7.0/toolchain/arm/arm-gnu-toolchain/bin/../lib/gcc/arm-none-eabi/5.3.1/../../../../arm-none-eabi/lib/armv6-m\libc_nano.a(lib_a-readr.o)
 .debug_frame   0x00000a9c       0x48 c:/program files (x86)/atmel/studio/7.0/toolchain/arm/arm-gnu-toolchain/bin/../lib/gcc/arm-none-eabi/5.3.1/../../../../arm-none-eabi/lib/armv6-m\libc_nano.a(lib_a-reent.o)
 .debug_frame   0x00000ae4       0x2c c:/program files (x86)/atmel/studio/7.0/toolchain/arm/arm-gnu-toolchain/bin/../lib/gcc/arm-none-eabi/5.3.1/../../../../arm-none-eabi/lib/armv6-m\libc_nano.a(lib_a-fstatr.o)
 .debug_frame   0x00000b10       0x2c c:/program files (x86)/atmel/studio/7.0/toolchain/arm/arm-gnu-toolchain/bin/../lib/gcc/arm-none-eabi/5.3.1/../../../../arm-none-eabi/lib/armv6-m\libc_nano.a(lib_a-isattyr.o)
 .debug_frame   0x00000b3c       0x20 c:/program files (x86)/atmel/studio/7.0/toolchain/arm/arm-gnu-toolchain/bin/../lib/gcc/arm-none-eabi/5.3.1/../../../../arm-none-eabi/lib/armv6-m\libc_nano.a(lib_a-memchr-stub.o)
 .debug_frame   0x00000b5c       0x28 c:/program files (x86)/atmel/studio/7.0/toolchain/arm/arm-gnu-toolchain/bin/../lib/gcc/arm-none-eabi/5.3.1/../../../../arm-none-eabi/lib/armv6-m\libc_nano.a(lib_a-memmove.o)
 .debug_frame   0x00000b84       0x30 c:/program files (x86)/atmel/studio/7.0/toolchain/arm/arm-gnu-toolchain/bin/../lib/gcc/arm-none-eabi/5.3.1/../../../../arm-none-eabi/lib/armv6-m\libc_nano.a(lib_a-nano-reallocr.o)
 .debug_frame   0x00000bb4       0x20 c:/program files (x86)/atmel/studio/7.0/toolchain/arm/arm-gnu-toolchain/bin/../lib/gcc/arm-none-eabi/5.3.1/../../../../arm-none-eabi/lib/armv6-m\libc_nano.a(lib_a-nano-msizer.o)
 .debug_frame   0x00000bd4       0x34 c:/program files (x86)/atmel/studio/7.0/toolchain/arm/arm-gnu-toolchain/bin/../lib/gcc/arm-none-eabi/5.3.1/armv6-m\libgcc.a(_muldi3.o)

Cross Reference Table

Symbol                                            File
ACCEL_UUID                                        src/BLE.o
CYMOTE_SERVICE_UUID                               src/BLE.o
GYRO_UUID                                         src/BLE.o
JOYSTICK_BUTTONS_UUID                             src/BLE.o
MAGNET_UUID                                       src/BLE.o
PORT1_COMB_Handler                                src/ASF/thirdparty/wireless/ble_smart_sdk/src/port_from_sdk.o
                                                  src/ASF/thirdparty/wireless/ble_smart_sdk/src/platform_drv.o
Seq_NUM                                           C:\Senior-Design\Cymote\Cymote2\Cymote2\src\ASF\thirdparty\wireless\ble_smart_sdk\lib\cm0\gcc\libblusdk.a(gattc_task.o)
SystemCoreClock                                   src/ASF/sam0/utils/cmsis/samb11/source/system_samb11.o
SystemCoreClockUpdate                             src/ASF/sam0/utils/cmsis/samb11/source/system_samb11.o
SystemInit                                        src/ASF/sam0/utils/cmsis/samb11/source/system_samb11.o
TIME_UUID                                         src/BLE.o
_Jv_RegisterClasses                               c:/program files (x86)/atmel/studio/7.0/toolchain/arm/arm-gnu-toolchain/bin/../lib/gcc/arm-none-eabi/5.3.1/armv6-m/crtbegin.o
__aeabi_cdcmpeq                                   c:/program files (x86)/atmel/studio/7.0/toolchain/arm/arm-gnu-toolchain/bin/../lib/gcc/arm-none-eabi/5.3.1/armv6-m\libgcc.a(_arm_cmpdf2.o)
__aeabi_cdcmple                                   c:/program files (x86)/atmel/studio/7.0/toolchain/arm/arm-gnu-toolchain/bin/../lib/gcc/arm-none-eabi/5.3.1/armv6-m\libgcc.a(_arm_cmpdf2.o)
__aeabi_cdrcmple                                  c:/program files (x86)/atmel/studio/7.0/toolchain/arm/arm-gnu-toolchain/bin/../lib/gcc/arm-none-eabi/5.3.1/armv6-m\libgcc.a(_arm_cmpdf2.o)
__aeabi_d2iz                                      c:/program files (x86)/atmel/studio/7.0/toolchain/arm/arm-gnu-toolchain/bin/../lib/gcc/arm-none-eabi/5.3.1/armv6-m\libgcc.a(fixdfsi.o)
                                                  c:/program files (x86)/atmel/studio/7.0/toolchain/arm/arm-gnu-toolchain/bin/../lib/gcc/arm-none-eabi/5.3.1/armv6-m\libgcc.a(_fixunsdfsi.o)
__aeabi_d2uiz                                     c:/program files (x86)/atmel/studio/7.0/toolchain/arm/arm-gnu-toolchain/bin/../lib/gcc/arm-none-eabi/5.3.1/armv6-m\libgcc.a(_fixunsdfsi.o)
                                                  src/ASF/thirdparty/wireless/ble_smart_sdk/services/uart/console_serial.o
__aeabi_dcmpeq                                    c:/program files (x86)/atmel/studio/7.0/toolchain/arm/arm-gnu-toolchain/bin/../lib/gcc/arm-none-eabi/5.3.1/armv6-m\libgcc.a(_arm_cmpdf2.o)
__aeabi_dcmpge                                    c:/program files (x86)/atmel/studio/7.0/toolchain/arm/arm-gnu-toolchain/bin/../lib/gcc/arm-none-eabi/5.3.1/armv6-m\libgcc.a(_arm_cmpdf2.o)
                                                  c:/program files (x86)/atmel/studio/7.0/toolchain/arm/arm-gnu-toolchain/bin/../lib/gcc/arm-none-eabi/5.3.1/armv6-m\libgcc.a(_fixunsdfsi.o)
__aeabi_dcmpgt                                    c:/program files (x86)/atmel/studio/7.0/toolchain/arm/arm-gnu-toolchain/bin/../lib/gcc/arm-none-eabi/5.3.1/armv6-m\libgcc.a(_arm_cmpdf2.o)
__aeabi_dcmple                                    c:/program files (x86)/atmel/studio/7.0/toolchain/arm/arm-gnu-toolchain/bin/../lib/gcc/arm-none-eabi/5.3.1/armv6-m\libgcc.a(_arm_cmpdf2.o)
__aeabi_dcmplt                                    c:/program files (x86)/atmel/studio/7.0/toolchain/arm/arm-gnu-toolchain/bin/../lib/gcc/arm-none-eabi/5.3.1/armv6-m\libgcc.a(_arm_cmpdf2.o)
__aeabi_dmul                                      c:/program files (x86)/atmel/studio/7.0/toolchain/arm/arm-gnu-toolchain/bin/../lib/gcc/arm-none-eabi/5.3.1/armv6-m\libgcc.a(muldf3.o)
                                                  src/ASF/thirdparty/wireless/ble_smart_sdk/services/uart/console_serial.o
__aeabi_dsub                                      c:/program files (x86)/atmel/studio/7.0/toolchain/arm/arm-gnu-toolchain/bin/../lib/gcc/arm-none-eabi/5.3.1/armv6-m\libgcc.a(subdf3.o)
                                                  c:/program files (x86)/atmel/studio/7.0/toolchain/arm/arm-gnu-toolchain/bin/../lib/gcc/arm-none-eabi/5.3.1/armv6-m\libgcc.a(_fixunsdfsi.o)
__aeabi_fmul                                      c:/program files (x86)/atmel/studio/7.0/toolchain/arm/arm-gnu-toolchain/bin/../lib/gcc/arm-none-eabi/5.3.1/armv6-m\libgcc.a(mulsf3.o)
                                                  C:\Senior-Design\Cymote\Cymote2\Cymote2\src\ASF\thirdparty\wireless\ble_smart_sdk\lib\cm0\gcc\libblusdk.a(calib_task.o)
__aeabi_idiv                                      c:/program files (x86)/atmel/studio/7.0/toolchain/arm/arm-gnu-toolchain/bin/../lib/gcc/arm-none-eabi/5.3.1/armv6-m\libgcc.a(_divsi3.o)
                                                  c:/program files (x86)/atmel/studio/7.0/toolchain/arm/arm-gnu-toolchain/bin/../lib/gcc/arm-none-eabi/5.3.1/../../../../arm-none-eabi/lib/armv6-m\libc_nano.a(lib_a-fvwrite.o)
                                                  src/LSM9DS0.o
                                                  src/ASF/sam0/drivers/pwm/pwm.o
__aeabi_idiv0                                     c:/program files (x86)/atmel/studio/7.0/toolchain/arm/arm-gnu-toolchain/bin/../lib/gcc/arm-none-eabi/5.3.1/armv6-m\libgcc.a(_dvmd_tls.o)
                                                  c:/program files (x86)/atmel/studio/7.0/toolchain/arm/arm-gnu-toolchain/bin/../lib/gcc/arm-none-eabi/5.3.1/armv6-m\libgcc.a(_divsi3.o)
                                                  c:/program files (x86)/atmel/studio/7.0/toolchain/arm/arm-gnu-toolchain/bin/../lib/gcc/arm-none-eabi/5.3.1/armv6-m\libgcc.a(_udivsi3.o)
__aeabi_idivmod                                   c:/program files (x86)/atmel/studio/7.0/toolchain/arm/arm-gnu-toolchain/bin/../lib/gcc/arm-none-eabi/5.3.1/armv6-m\libgcc.a(_divsi3.o)
                                                  src/LSM9DS0.o
__aeabi_ldiv0                                     c:/program files (x86)/atmel/studio/7.0/toolchain/arm/arm-gnu-toolchain/bin/../lib/gcc/arm-none-eabi/5.3.1/armv6-m\libgcc.a(_dvmd_tls.o)
__aeabi_lmul                                      c:/program files (x86)/atmel/studio/7.0/toolchain/arm/arm-gnu-toolchain/bin/../lib/gcc/arm-none-eabi/5.3.1/armv6-m\libgcc.a(_muldi3.o)
                                                  c:/program files (x86)/atmel/studio/7.0/toolchain/arm/arm-gnu-toolchain/bin/../lib/gcc/arm-none-eabi/5.3.1/../../../../arm-none-eabi/lib/armv6-m\libc_nano.a(lib_a-rand.o)
__aeabi_ui2d                                      c:/program files (x86)/atmel/studio/7.0/toolchain/arm/arm-gnu-toolchain/bin/../lib/gcc/arm-none-eabi/5.3.1/armv6-m\libgcc.a(floatunsidf.o)
                                                  src/ASF/thirdparty/wireless/ble_smart_sdk/services/uart/console_serial.o
__aeabi_ui2f                                      c:/program files (x86)/atmel/studio/7.0/toolchain/arm/arm-gnu-toolchain/bin/../lib/gcc/arm-none-eabi/5.3.1/armv6-m\libgcc.a(floatunsisf.o)
                                                  C:\Senior-Design\Cymote\Cymote2\Cymote2\src\ASF\thirdparty\wireless\ble_smart_sdk\lib\cm0\gcc\libblusdk.a(calib_task.o)
__aeabi_uidiv                                     c:/program files (x86)/atmel/studio/7.0/toolchain/arm/arm-gnu-toolchain/bin/../lib/gcc/arm-none-eabi/5.3.1/armv6-m\libgcc.a(_udivsi3.o)
                                                  c:/program files (x86)/atmel/studio/7.0/toolchain/arm/arm-gnu-toolchain/bin/../lib/gcc/arm-none-eabi/5.3.1/../../../../arm-none-eabi/lib/armv6-m\libc_nano.a(lib_a-nano-vfprintf_i.o)
                                                  C:\Senior-Design\Cymote\Cymote2\Cymote2\src\ASF\thirdparty\wireless\ble_smart_sdk\lib\cm0\gcc\libblusdk.a(gattm_task.o)
                                                  src/ASF/sam0/drivers/uart/uart.o
__aeabi_uidivmod                                  c:/program files (x86)/atmel/studio/7.0/toolchain/arm/arm-gnu-toolchain/bin/../lib/gcc/arm-none-eabi/5.3.1/armv6-m\libgcc.a(_udivsi3.o)
                                                  c:/program files (x86)/atmel/studio/7.0/toolchain/arm/arm-gnu-toolchain/bin/../lib/gcc/arm-none-eabi/5.3.1/../../../../arm-none-eabi/lib/armv6-m\libc_nano.a(lib_a-nano-vfprintf_i.o)
__bss_end__                                       c:/program files (x86)/atmel/studio/7.0/toolchain/arm/arm-gnu-toolchain/bin/../lib/gcc/arm-none-eabi/5.3.1/../../../../arm-none-eabi/lib/armv6-m/crt0.o
__bss_start__                                     c:/program files (x86)/atmel/studio/7.0/toolchain/arm/arm-gnu-toolchain/bin/../lib/gcc/arm-none-eabi/5.3.1/../../../../arm-none-eabi/lib/armv6-m/crt0.o
__call_exitprocs                                  c:/program files (x86)/atmel/studio/7.0/toolchain/arm/arm-gnu-toolchain/bin/../lib/gcc/arm-none-eabi/5.3.1/../../../../arm-none-eabi/lib/armv6-m\libc_nano.a(lib_a-exit.o)
__clzsi2                                          c:/program files (x86)/atmel/studio/7.0/toolchain/arm/arm-gnu-toolchain/bin/../lib/gcc/arm-none-eabi/5.3.1/armv6-m\libgcc.a(_clzsi2.o)
                                                  c:/program files (x86)/atmel/studio/7.0/toolchain/arm/arm-gnu-toolchain/bin/../lib/gcc/arm-none-eabi/5.3.1/armv6-m\libgcc.a(floatunsidf.o)
                                                  c:/program files (x86)/atmel/studio/7.0/toolchain/arm/arm-gnu-toolchain/bin/../lib/gcc/arm-none-eabi/5.3.1/armv6-m\libgcc.a(subdf3.o)
                                                  c:/program files (x86)/atmel/studio/7.0/toolchain/arm/arm-gnu-toolchain/bin/../lib/gcc/arm-none-eabi/5.3.1/armv6-m\libgcc.a(muldf3.o)
                                                  c:/program files (x86)/atmel/studio/7.0/toolchain/arm/arm-gnu-toolchain/bin/../lib/gcc/arm-none-eabi/5.3.1/armv6-m\libgcc.a(floatunsisf.o)
                                                  c:/program files (x86)/atmel/studio/7.0/toolchain/arm/arm-gnu-toolchain/bin/../lib/gcc/arm-none-eabi/5.3.1/armv6-m\libgcc.a(mulsf3.o)
__deregister_frame_info                           c:/program files (x86)/atmel/studio/7.0/toolchain/arm/arm-gnu-toolchain/bin/../lib/gcc/arm-none-eabi/5.3.1/armv6-m/crtbegin.o
__divsi3                                          c:/program files (x86)/atmel/studio/7.0/toolchain/arm/arm-gnu-toolchain/bin/../lib/gcc/arm-none-eabi/5.3.1/armv6-m\libgcc.a(_divsi3.o)
__dso_handle                                      c:/program files (x86)/atmel/studio/7.0/toolchain/arm/arm-gnu-toolchain/bin/../lib/gcc/arm-none-eabi/5.3.1/armv6-m/crtbegin.o
__eqdf2                                           c:/program files (x86)/atmel/studio/7.0/toolchain/arm/arm-gnu-toolchain/bin/../lib/gcc/arm-none-eabi/5.3.1/armv6-m\libgcc.a(eqdf2.o)
                                                  c:/program files (x86)/atmel/studio/7.0/toolchain/arm/arm-gnu-toolchain/bin/../lib/gcc/arm-none-eabi/5.3.1/armv6-m\libgcc.a(_arm_cmpdf2.o)
__fixunsdfsi                                      c:/program files (x86)/atmel/studio/7.0/toolchain/arm/arm-gnu-toolchain/bin/../lib/gcc/arm-none-eabi/5.3.1/armv6-m\libgcc.a(_fixunsdfsi.o)
__fp_lock_all                                     c:/program files (x86)/atmel/studio/7.0/toolchain/arm/arm-gnu-toolchain/bin/../lib/gcc/arm-none-eabi/5.3.1/../../../../arm-none-eabi/lib/armv6-m\libc_nano.a(lib_a-findfp.o)
__fp_unlock_all                                   c:/program files (x86)/atmel/studio/7.0/toolchain/arm/arm-gnu-toolchain/bin/../lib/gcc/arm-none-eabi/5.3.1/../../../../arm-none-eabi/lib/armv6-m\libc_nano.a(lib_a-findfp.o)
__gedf2                                           c:/program files (x86)/atmel/studio/7.0/toolchain/arm/arm-gnu-toolchain/bin/../lib/gcc/arm-none-eabi/5.3.1/armv6-m\libgcc.a(gedf2.o)
                                                  c:/program files (x86)/atmel/studio/7.0/toolchain/arm/arm-gnu-toolchain/bin/../lib/gcc/arm-none-eabi/5.3.1/armv6-m\libgcc.a(_arm_cmpdf2.o)
__gnu_thumb1_case_sqi                             c:/program files (x86)/atmel/studio/7.0/toolchain/arm/arm-gnu-toolchain/bin/../lib/gcc/arm-none-eabi/5.3.1/armv6-m\libgcc.a(_thumb1_case_sqi.o)
                                                  C:\Senior-Design\Cymote\Cymote2\Cymote2\src\ASF\thirdparty\wireless\ble_smart_sdk\lib\cm0\gcc\libblusdk.a(gap.o)
__gnu_thumb1_case_uhi                             c:/program files (x86)/atmel/studio/7.0/toolchain/arm/arm-gnu-toolchain/bin/../lib/gcc/arm-none-eabi/5.3.1/armv6-m\libgcc.a(_thumb1_case_uhi.o)
                                                  src/ASF/sam0/drivers/system/system_sam_b.o
__gnu_thumb1_case_uqi                             c:/program files (x86)/atmel/studio/7.0/toolchain/arm/arm-gnu-toolchain/bin/../lib/gcc/arm-none-eabi/5.3.1/armv6-m\libgcc.a(_thumb1_case_uqi.o)
                                                  C:\Senior-Design\Cymote\Cymote2\Cymote2\src\ASF\thirdparty\wireless\ble_smart_sdk\lib\cm0\gcc\libblusdk.a(gattc_task.o)
                                                  C:\Senior-Design\Cymote\Cymote2\Cymote2\src\ASF\thirdparty\wireless\ble_smart_sdk\lib\cm0\gcc\libblusdk.a(gapm_task.o)
                                                  C:\Senior-Design\Cymote\Cymote2\Cymote2\src\ASF\thirdparty\wireless\ble_smart_sdk\lib\cm0\gcc\libblusdk.a(gapc_task.o)
                                                  C:\Senior-Design\Cymote\Cymote2\Cymote2\src\ASF\thirdparty\wireless\ble_smart_sdk\lib\cm0\gcc\libblusdk.a(gap.o)
                                                  src/ASF/sam0/drivers/uart/uart.o
                                                  src/ASF/sam0/drivers/system/system_sam_b.o
                                                  src/ASF/sam0/drivers/gpio/gpio.o
                                                  src/ASF/sam0/drivers/pwm/pwm.o
                                                  src/ASF/sam0/drivers/adc/adc_sam_b/adc_sam_b.o
__gtdf2                                           c:/program files (x86)/atmel/studio/7.0/toolchain/arm/arm-gnu-toolchain/bin/../lib/gcc/arm-none-eabi/5.3.1/armv6-m\libgcc.a(gedf2.o)
__init_array_end                                  c:/program files (x86)/atmel/studio/7.0/toolchain/arm/arm-gnu-toolchain/bin/../lib/gcc/arm-none-eabi/5.3.1/../../../../arm-none-eabi/lib/armv6-m\libc_nano.a(lib_a-init.o)
__init_array_start                                c:/program files (x86)/atmel/studio/7.0/toolchain/arm/arm-gnu-toolchain/bin/../lib/gcc/arm-none-eabi/5.3.1/../../../../arm-none-eabi/lib/armv6-m\libc_nano.a(lib_a-init.o)
__ledf2                                           c:/program files (x86)/atmel/studio/7.0/toolchain/arm/arm-gnu-toolchain/bin/../lib/gcc/arm-none-eabi/5.3.1/armv6-m\libgcc.a(ledf2.o)
                                                  c:/program files (x86)/atmel/studio/7.0/toolchain/arm/arm-gnu-toolchain/bin/../lib/gcc/arm-none-eabi/5.3.1/armv6-m\libgcc.a(_arm_cmpdf2.o)
__libc_fini_array                                 c:/program files (x86)/atmel/studio/7.0/toolchain/arm/arm-gnu-toolchain/bin/../lib/gcc/arm-none-eabi/5.3.1/../../../../arm-none-eabi/lib/armv6-m/crt0.o
__libc_init_array                                 c:/program files (x86)/atmel/studio/7.0/toolchain/arm/arm-gnu-toolchain/bin/../lib/gcc/arm-none-eabi/5.3.1/../../../../arm-none-eabi/lib/armv6-m\libc_nano.a(lib_a-init.o)
                                                  src/ASF/sam0/utils/cmsis/samb11/source/gcc/startup_samb11.o
                                                  c:/program files (x86)/atmel/studio/7.0/toolchain/arm/arm-gnu-toolchain/bin/../lib/gcc/arm-none-eabi/5.3.1/../../../../arm-none-eabi/lib/armv6-m/crt0.o
__ltdf2                                           c:/program files (x86)/atmel/studio/7.0/toolchain/arm/arm-gnu-toolchain/bin/../lib/gcc/arm-none-eabi/5.3.1/armv6-m\libgcc.a(ledf2.o)
__malloc_free_list                                c:/program files (x86)/atmel/studio/7.0/toolchain/arm/arm-gnu-toolchain/bin/../lib/gcc/arm-none-eabi/5.3.1/../../../../arm-none-eabi/lib/armv6-m\libc_nano.a(lib_a-nano-mallocr.o)
                                                  c:/program files (x86)/atmel/studio/7.0/toolchain/arm/arm-gnu-toolchain/bin/../lib/gcc/arm-none-eabi/5.3.1/../../../../arm-none-eabi/lib/armv6-m\libc_nano.a(lib_a-nano-freer.o)
__malloc_sbrk_start                               c:/program files (x86)/atmel/studio/7.0/toolchain/arm/arm-gnu-toolchain/bin/../lib/gcc/arm-none-eabi/5.3.1/../../../../arm-none-eabi/lib/armv6-m\libc_nano.a(lib_a-nano-mallocr.o)
__muldi3                                          c:/program files (x86)/atmel/studio/7.0/toolchain/arm/arm-gnu-toolchain/bin/../lib/gcc/arm-none-eabi/5.3.1/armv6-m\libgcc.a(_muldi3.o)
__nedf2                                           c:/program files (x86)/atmel/studio/7.0/toolchain/arm/arm-gnu-toolchain/bin/../lib/gcc/arm-none-eabi/5.3.1/armv6-m\libgcc.a(eqdf2.o)
__preinit_array_end                               c:/program files (x86)/atmel/studio/7.0/toolchain/arm/arm-gnu-toolchain/bin/../lib/gcc/arm-none-eabi/5.3.1/../../../../arm-none-eabi/lib/armv6-m\libc_nano.a(lib_a-init.o)
__preinit_array_start                             c:/program files (x86)/atmel/studio/7.0/toolchain/arm/arm-gnu-toolchain/bin/../lib/gcc/arm-none-eabi/5.3.1/../../../../arm-none-eabi/lib/armv6-m\libc_nano.a(lib_a-init.o)
__register_frame_info                             c:/program files (x86)/atmel/studio/7.0/toolchain/arm/arm-gnu-toolchain/bin/../lib/gcc/arm-none-eabi/5.3.1/armv6-m/crtbegin.o
__sclose                                          c:/program files (x86)/atmel/studio/7.0/toolchain/arm/arm-gnu-toolchain/bin/../lib/gcc/arm-none-eabi/5.3.1/../../../../arm-none-eabi/lib/armv6-m\libc_nano.a(lib_a-stdio.o)
                                                  c:/program files (x86)/atmel/studio/7.0/toolchain/arm/arm-gnu-toolchain/bin/../lib/gcc/arm-none-eabi/5.3.1/../../../../arm-none-eabi/lib/armv6-m\libc_nano.a(lib_a-findfp.o)
__seofread                                        c:/program files (x86)/atmel/studio/7.0/toolchain/arm/arm-gnu-toolchain/bin/../lib/gcc/arm-none-eabi/5.3.1/../../../../arm-none-eabi/lib/armv6-m\libc_nano.a(lib_a-stdio.o)
__sf_fake_stderr                                  c:/program files (x86)/atmel/studio/7.0/toolchain/arm/arm-gnu-toolchain/bin/../lib/gcc/arm-none-eabi/5.3.1/../../../../arm-none-eabi/lib/armv6-m\libc_nano.a(lib_a-findfp.o)
                                                  c:/program files (x86)/atmel/studio/7.0/toolchain/arm/arm-gnu-toolchain/bin/../lib/gcc/arm-none-eabi/5.3.1/../../../../arm-none-eabi/lib/armv6-m\libc_nano.a(lib_a-putc.o)
                                                  c:/program files (x86)/atmel/studio/7.0/toolchain/arm/arm-gnu-toolchain/bin/../lib/gcc/arm-none-eabi/5.3.1/../../../../arm-none-eabi/lib/armv6-m\libc_nano.a(lib_a-nano-vfprintf.o)
                                                  c:/program files (x86)/atmel/studio/7.0/toolchain/arm/arm-gnu-toolchain/bin/../lib/gcc/arm-none-eabi/5.3.1/../../../../arm-none-eabi/lib/armv6-m\libc_nano.a(lib_a-wsetup.o)
                                                  c:/program files (x86)/atmel/studio/7.0/toolchain/arm/arm-gnu-toolchain/bin/../lib/gcc/arm-none-eabi/5.3.1/../../../../arm-none-eabi/lib/armv6-m\libc_nano.a(lib_a-wbuf.o)
                                                  c:/program files (x86)/atmel/studio/7.0/toolchain/arm/arm-gnu-toolchain/bin/../lib/gcc/arm-none-eabi/5.3.1/../../../../arm-none-eabi/lib/armv6-m\libc_nano.a(lib_a-setvbuf.o)
                                                  c:/program files (x86)/atmel/studio/7.0/toolchain/arm/arm-gnu-toolchain/bin/../lib/gcc/arm-none-eabi/5.3.1/../../../../arm-none-eabi/lib/armv6-m\libc_nano.a(lib_a-puts.o)
                                                  c:/program files (x86)/atmel/studio/7.0/toolchain/arm/arm-gnu-toolchain/bin/../lib/gcc/arm-none-eabi/5.3.1/../../../../arm-none-eabi/lib/armv6-m\libc_nano.a(lib_a-impure.o)
                                                  c:/program files (x86)/atmel/studio/7.0/toolchain/arm/arm-gnu-toolchain/bin/../lib/gcc/arm-none-eabi/5.3.1/../../../../arm-none-eabi/lib/armv6-m\libc_nano.a(lib_a-fflush.o)
__sf_fake_stdin                                   c:/program files (x86)/atmel/studio/7.0/toolchain/arm/arm-gnu-toolchain/bin/../lib/gcc/arm-none-eabi/5.3.1/../../../../arm-none-eabi/lib/armv6-m\libc_nano.a(lib_a-findfp.o)
                                                  c:/program files (x86)/atmel/studio/7.0/toolchain/arm/arm-gnu-toolchain/bin/../lib/gcc/arm-none-eabi/5.3.1/../../../../arm-none-eabi/lib/armv6-m\libc_nano.a(lib_a-putc.o)
                                                  c:/program files (x86)/atmel/studio/7.0/toolchain/arm/arm-gnu-toolchain/bin/../lib/gcc/arm-none-eabi/5.3.1/../../../../arm-none-eabi/lib/armv6-m\libc_nano.a(lib_a-nano-vfprintf.o)
                                                  c:/program files (x86)/atmel/studio/7.0/toolchain/arm/arm-gnu-toolchain/bin/../lib/gcc/arm-none-eabi/5.3.1/../../../../arm-none-eabi/lib/armv6-m\libc_nano.a(lib_a-wsetup.o)
                                                  c:/program files (x86)/atmel/studio/7.0/toolchain/arm/arm-gnu-toolchain/bin/../lib/gcc/arm-none-eabi/5.3.1/../../../../arm-none-eabi/lib/armv6-m\libc_nano.a(lib_a-wbuf.o)
                                                  c:/program files (x86)/atmel/studio/7.0/toolchain/arm/arm-gnu-toolchain/bin/../lib/gcc/arm-none-eabi/5.3.1/../../../../arm-none-eabi/lib/armv6-m\libc_nano.a(lib_a-setvbuf.o)
                                                  c:/program files (x86)/atmel/studio/7.0/toolchain/arm/arm-gnu-toolchain/bin/../lib/gcc/arm-none-eabi/5.3.1/../../../../arm-none-eabi/lib/armv6-m\libc_nano.a(lib_a-puts.o)
                                                  c:/program files (x86)/atmel/studio/7.0/toolchain/arm/arm-gnu-toolchain/bin/../lib/gcc/arm-none-eabi/5.3.1/../../../../arm-none-eabi/lib/armv6-m\libc_nano.a(lib_a-impure.o)
                                                  c:/program files (x86)/atmel/studio/7.0/toolchain/arm/arm-gnu-toolchain/bin/../lib/gcc/arm-none-eabi/5.3.1/../../../../arm-none-eabi/lib/armv6-m\libc_nano.a(lib_a-fflush.o)
__sf_fake_stdout                                  c:/program files (x86)/atmel/studio/7.0/toolchain/arm/arm-gnu-toolchain/bin/../lib/gcc/arm-none-eabi/5.3.1/../../../../arm-none-eabi/lib/armv6-m\libc_nano.a(lib_a-findfp.o)
                                                  c:/program files (x86)/atmel/studio/7.0/toolchain/arm/arm-gnu-toolchain/bin/../lib/gcc/arm-none-eabi/5.3.1/../../../../arm-none-eabi/lib/armv6-m\libc_nano.a(lib_a-putc.o)
                                                  c:/program files (x86)/atmel/studio/7.0/toolchain/arm/arm-gnu-toolchain/bin/../lib/gcc/arm-none-eabi/5.3.1/../../../../arm-none-eabi/lib/armv6-m\libc_nano.a(lib_a-nano-vfprintf.o)
                                                  c:/program files (x86)/atmel/studio/7.0/toolchain/arm/arm-gnu-toolchain/bin/../lib/gcc/arm-none-eabi/5.3.1/../../../../arm-none-eabi/lib/armv6-m\libc_nano.a(lib_a-wsetup.o)
                                                  c:/program files (x86)/atmel/studio/7.0/toolchain/arm/arm-gnu-toolchain/bin/../lib/gcc/arm-none-eabi/5.3.1/../../../../arm-none-eabi/lib/armv6-m\libc_nano.a(lib_a-wbuf.o)
                                                  c:/program files (x86)/atmel/studio/7.0/toolchain/arm/arm-gnu-toolchain/bin/../lib/gcc/arm-none-eabi/5.3.1/../../../../arm-none-eabi/lib/armv6-m\libc_nano.a(lib_a-setvbuf.o)
                                                  c:/program files (x86)/atmel/studio/7.0/toolchain/arm/arm-gnu-toolchain/bin/../lib/gcc/arm-none-eabi/5.3.1/../../../../arm-none-eabi/lib/armv6-m\libc_nano.a(lib_a-puts.o)
                                                  c:/program files (x86)/atmel/studio/7.0/toolchain/arm/arm-gnu-toolchain/bin/../lib/gcc/arm-none-eabi/5.3.1/../../../../arm-none-eabi/lib/armv6-m\libc_nano.a(lib_a-impure.o)
                                                  c:/program files (x86)/atmel/studio/7.0/toolchain/arm/arm-gnu-toolchain/bin/../lib/gcc/arm-none-eabi/5.3.1/../../../../arm-none-eabi/lib/armv6-m\libc_nano.a(lib_a-fflush.o)
__sflush_r                                        c:/program files (x86)/atmel/studio/7.0/toolchain/arm/arm-gnu-toolchain/bin/../lib/gcc/arm-none-eabi/5.3.1/../../../../arm-none-eabi/lib/armv6-m\libc_nano.a(lib_a-fflush.o)
__sfmoreglue                                      c:/program files (x86)/atmel/studio/7.0/toolchain/arm/arm-gnu-toolchain/bin/../lib/gcc/arm-none-eabi/5.3.1/../../../../arm-none-eabi/lib/armv6-m\libc_nano.a(lib_a-findfp.o)
__sfp                                             c:/program files (x86)/atmel/studio/7.0/toolchain/arm/arm-gnu-toolchain/bin/../lib/gcc/arm-none-eabi/5.3.1/../../../../arm-none-eabi/lib/armv6-m\libc_nano.a(lib_a-findfp.o)
__sfp_lock_acquire                                c:/program files (x86)/atmel/studio/7.0/toolchain/arm/arm-gnu-toolchain/bin/../lib/gcc/arm-none-eabi/5.3.1/../../../../arm-none-eabi/lib/armv6-m\libc_nano.a(lib_a-findfp.o)
__sfp_lock_release                                c:/program files (x86)/atmel/studio/7.0/toolchain/arm/arm-gnu-toolchain/bin/../lib/gcc/arm-none-eabi/5.3.1/../../../../arm-none-eabi/lib/armv6-m\libc_nano.a(lib_a-findfp.o)
__sfputs_r                                        c:/program files (x86)/atmel/studio/7.0/toolchain/arm/arm-gnu-toolchain/bin/../lib/gcc/arm-none-eabi/5.3.1/../../../../arm-none-eabi/lib/armv6-m\libc_nano.a(lib_a-nano-vfprintf.o)
__sfvwrite_r                                      c:/program files (x86)/atmel/studio/7.0/toolchain/arm/arm-gnu-toolchain/bin/../lib/gcc/arm-none-eabi/5.3.1/../../../../arm-none-eabi/lib/armv6-m\libc_nano.a(lib_a-fvwrite.o)
                                                  c:/program files (x86)/atmel/studio/7.0/toolchain/arm/arm-gnu-toolchain/bin/../lib/gcc/arm-none-eabi/5.3.1/../../../../arm-none-eabi/lib/armv6-m\libc_nano.a(lib_a-nano-vfprintf.o)
__sinit                                           c:/program files (x86)/atmel/studio/7.0/toolchain/arm/arm-gnu-toolchain/bin/../lib/gcc/arm-none-eabi/5.3.1/../../../../arm-none-eabi/lib/armv6-m\libc_nano.a(lib_a-findfp.o)
                                                  c:/program files (x86)/atmel/studio/7.0/toolchain/arm/arm-gnu-toolchain/bin/../lib/gcc/arm-none-eabi/5.3.1/../../../../arm-none-eabi/lib/armv6-m\libc_nano.a(lib_a-putc.o)
                                                  c:/program files (x86)/atmel/studio/7.0/toolchain/arm/arm-gnu-toolchain/bin/../lib/gcc/arm-none-eabi/5.3.1/../../../../arm-none-eabi/lib/armv6-m\libc_nano.a(lib_a-nano-vfprintf.o)
                                                  c:/program files (x86)/atmel/studio/7.0/toolchain/arm/arm-gnu-toolchain/bin/../lib/gcc/arm-none-eabi/5.3.1/../../../../arm-none-eabi/lib/armv6-m\libc_nano.a(lib_a-wsetup.o)
                                                  c:/program files (x86)/atmel/studio/7.0/toolchain/arm/arm-gnu-toolchain/bin/../lib/gcc/arm-none-eabi/5.3.1/../../../../arm-none-eabi/lib/armv6-m\libc_nano.a(lib_a-wbuf.o)
                                                  c:/program files (x86)/atmel/studio/7.0/toolchain/arm/arm-gnu-toolchain/bin/../lib/gcc/arm-none-eabi/5.3.1/../../../../arm-none-eabi/lib/armv6-m\libc_nano.a(lib_a-setvbuf.o)
                                                  c:/program files (x86)/atmel/studio/7.0/toolchain/arm/arm-gnu-toolchain/bin/../lib/gcc/arm-none-eabi/5.3.1/../../../../arm-none-eabi/lib/armv6-m\libc_nano.a(lib_a-puts.o)
                                                  c:/program files (x86)/atmel/studio/7.0/toolchain/arm/arm-gnu-toolchain/bin/../lib/gcc/arm-none-eabi/5.3.1/../../../../arm-none-eabi/lib/armv6-m\libc_nano.a(lib_a-putchar.o)
                                                  c:/program files (x86)/atmel/studio/7.0/toolchain/arm/arm-gnu-toolchain/bin/../lib/gcc/arm-none-eabi/5.3.1/../../../../arm-none-eabi/lib/armv6-m\libc_nano.a(lib_a-printf.o)
                                                  c:/program files (x86)/atmel/studio/7.0/toolchain/arm/arm-gnu-toolchain/bin/../lib/gcc/arm-none-eabi/5.3.1/../../../../arm-none-eabi/lib/armv6-m\libc_nano.a(lib_a-fflush.o)
__sinit_lock_acquire                              c:/program files (x86)/atmel/studio/7.0/toolchain/arm/arm-gnu-toolchain/bin/../lib/gcc/arm-none-eabi/5.3.1/../../../../arm-none-eabi/lib/armv6-m\libc_nano.a(lib_a-findfp.o)
__sinit_lock_release                              c:/program files (x86)/atmel/studio/7.0/toolchain/arm/arm-gnu-toolchain/bin/../lib/gcc/arm-none-eabi/5.3.1/../../../../arm-none-eabi/lib/armv6-m\libc_nano.a(lib_a-findfp.o)
__smakebuf_r                                      c:/program files (x86)/atmel/studio/7.0/toolchain/arm/arm-gnu-toolchain/bin/../lib/gcc/arm-none-eabi/5.3.1/../../../../arm-none-eabi/lib/armv6-m\libc_nano.a(lib_a-makebuf.o)
                                                  c:/program files (x86)/atmel/studio/7.0/toolchain/arm/arm-gnu-toolchain/bin/../lib/gcc/arm-none-eabi/5.3.1/../../../../arm-none-eabi/lib/armv6-m\libc_nano.a(lib_a-wsetup.o)
__sprint_r                                        c:/program files (x86)/atmel/studio/7.0/toolchain/arm/arm-gnu-toolchain/bin/../lib/gcc/arm-none-eabi/5.3.1/../../../../arm-none-eabi/lib/armv6-m\libc_nano.a(lib_a-nano-vfprintf.o)
__sread                                           c:/program files (x86)/atmel/studio/7.0/toolchain/arm/arm-gnu-toolchain/bin/../lib/gcc/arm-none-eabi/5.3.1/../../../../arm-none-eabi/lib/armv6-m\libc_nano.a(lib_a-stdio.o)
                                                  c:/program files (x86)/atmel/studio/7.0/toolchain/arm/arm-gnu-toolchain/bin/../lib/gcc/arm-none-eabi/5.3.1/../../../../arm-none-eabi/lib/armv6-m\libc_nano.a(lib_a-findfp.o)
__sseek                                           c:/program files (x86)/atmel/studio/7.0/toolchain/arm/arm-gnu-toolchain/bin/../lib/gcc/arm-none-eabi/5.3.1/../../../../arm-none-eabi/lib/armv6-m\libc_nano.a(lib_a-stdio.o)
                                                  c:/program files (x86)/atmel/studio/7.0/toolchain/arm/arm-gnu-toolchain/bin/../lib/gcc/arm-none-eabi/5.3.1/../../../../arm-none-eabi/lib/armv6-m\libc_nano.a(lib_a-findfp.o)
__ssprint_r                                       c:/program files (x86)/atmel/studio/7.0/toolchain/arm/arm-gnu-toolchain/bin/../lib/gcc/arm-none-eabi/5.3.1/../../../../arm-none-eabi/lib/armv6-m\libc_nano.a(lib_a-nano-svfprintf.o)
__ssputs_r                                        c:/program files (x86)/atmel/studio/7.0/toolchain/arm/arm-gnu-toolchain/bin/../lib/gcc/arm-none-eabi/5.3.1/../../../../arm-none-eabi/lib/armv6-m\libc_nano.a(lib_a-nano-svfprintf.o)
__stack                                           c:/program files (x86)/atmel/studio/7.0/toolchain/arm/arm-gnu-toolchain/bin/../lib/gcc/arm-none-eabi/5.3.1/../../../../arm-none-eabi/lib/armv6-m/crt0.o
__swbuf                                           c:/program files (x86)/atmel/studio/7.0/toolchain/arm/arm-gnu-toolchain/bin/../lib/gcc/arm-none-eabi/5.3.1/../../../../arm-none-eabi/lib/armv6-m\libc_nano.a(lib_a-wbuf.o)
__swbuf_r                                         c:/program files (x86)/atmel/studio/7.0/toolchain/arm/arm-gnu-toolchain/bin/../lib/gcc/arm-none-eabi/5.3.1/../../../../arm-none-eabi/lib/armv6-m\libc_nano.a(lib_a-wbuf.o)
                                                  c:/program files (x86)/atmel/studio/7.0/toolchain/arm/arm-gnu-toolchain/bin/../lib/gcc/arm-none-eabi/5.3.1/../../../../arm-none-eabi/lib/armv6-m\libc_nano.a(lib_a-putc.o)
                                                  c:/program files (x86)/atmel/studio/7.0/toolchain/arm/arm-gnu-toolchain/bin/../lib/gcc/arm-none-eabi/5.3.1/../../../../arm-none-eabi/lib/armv6-m\libc_nano.a(lib_a-nano-vfprintf.o)
                                                  c:/program files (x86)/atmel/studio/7.0/toolchain/arm/arm-gnu-toolchain/bin/../lib/gcc/arm-none-eabi/5.3.1/../../../../arm-none-eabi/lib/armv6-m\libc_nano.a(lib_a-puts.o)
__swhatbuf_r                                      c:/program files (x86)/atmel/studio/7.0/toolchain/arm/arm-gnu-toolchain/bin/../lib/gcc/arm-none-eabi/5.3.1/../../../../arm-none-eabi/lib/armv6-m\libc_nano.a(lib_a-makebuf.o)
                                                  c:/program files (x86)/atmel/studio/7.0/toolchain/arm/arm-gnu-toolchain/bin/../lib/gcc/arm-none-eabi/5.3.1/../../../../arm-none-eabi/lib/armv6-m\libc_nano.a(lib_a-setvbuf.o)
__swrite                                          c:/program files (x86)/atmel/studio/7.0/toolchain/arm/arm-gnu-toolchain/bin/../lib/gcc/arm-none-eabi/5.3.1/../../../../arm-none-eabi/lib/armv6-m\libc_nano.a(lib_a-stdio.o)
                                                  c:/program files (x86)/atmel/studio/7.0/toolchain/arm/arm-gnu-toolchain/bin/../lib/gcc/arm-none-eabi/5.3.1/../../../../arm-none-eabi/lib/armv6-m\libc_nano.a(lib_a-findfp.o)
__swsetup_r                                       c:/program files (x86)/atmel/studio/7.0/toolchain/arm/arm-gnu-toolchain/bin/../lib/gcc/arm-none-eabi/5.3.1/../../../../arm-none-eabi/lib/armv6-m\libc_nano.a(lib_a-wsetup.o)
                                                  c:/program files (x86)/atmel/studio/7.0/toolchain/arm/arm-gnu-toolchain/bin/../lib/gcc/arm-none-eabi/5.3.1/../../../../arm-none-eabi/lib/armv6-m\libc_nano.a(lib_a-fvwrite.o)
                                                  c:/program files (x86)/atmel/studio/7.0/toolchain/arm/arm-gnu-toolchain/bin/../lib/gcc/arm-none-eabi/5.3.1/../../../../arm-none-eabi/lib/armv6-m\libc_nano.a(lib_a-nano-vfprintf.o)
                                                  c:/program files (x86)/atmel/studio/7.0/toolchain/arm/arm-gnu-toolchain/bin/../lib/gcc/arm-none-eabi/5.3.1/../../../../arm-none-eabi/lib/armv6-m\libc_nano.a(lib_a-wbuf.o)
                                                  c:/program files (x86)/atmel/studio/7.0/toolchain/arm/arm-gnu-toolchain/bin/../lib/gcc/arm-none-eabi/5.3.1/../../../../arm-none-eabi/lib/armv6-m\libc_nano.a(lib_a-puts.o)
__udivsi3                                         c:/program files (x86)/atmel/studio/7.0/toolchain/arm/arm-gnu-toolchain/bin/../lib/gcc/arm-none-eabi/5.3.1/armv6-m\libgcc.a(_udivsi3.o)
_cleanup                                          c:/program files (x86)/atmel/studio/7.0/toolchain/arm/arm-gnu-toolchain/bin/../lib/gcc/arm-none-eabi/5.3.1/../../../../arm-none-eabi/lib/armv6-m\libc_nano.a(lib_a-findfp.o)
_cleanup_r                                        c:/program files (x86)/atmel/studio/7.0/toolchain/arm/arm-gnu-toolchain/bin/../lib/gcc/arm-none-eabi/5.3.1/../../../../arm-none-eabi/lib/armv6-m\libc_nano.a(lib_a-findfp.o)
                                                  c:/program files (x86)/atmel/studio/7.0/toolchain/arm/arm-gnu-toolchain/bin/../lib/gcc/arm-none-eabi/5.3.1/../../../../arm-none-eabi/lib/armv6-m\libc_nano.a(lib_a-makebuf.o)
_close                                            src/ASF/sam0/utils/syscalls/gcc/syscalls.o
                                                  c:/program files (x86)/atmel/studio/7.0/toolchain/arm/arm-gnu-toolchain/bin/../lib/gcc/arm-none-eabi/5.3.1/../../../../arm-none-eabi/lib/armv6-m\libc_nano.a(lib_a-closer.o)
_close_r                                          c:/program files (x86)/atmel/studio/7.0/toolchain/arm/arm-gnu-toolchain/bin/../lib/gcc/arm-none-eabi/5.3.1/../../../../arm-none-eabi/lib/armv6-m\libc_nano.a(lib_a-closer.o)
                                                  c:/program files (x86)/atmel/studio/7.0/toolchain/arm/arm-gnu-toolchain/bin/../lib/gcc/arm-none-eabi/5.3.1/../../../../arm-none-eabi/lib/armv6-m\libc_nano.a(lib_a-stdio.o)
_end                                              src/ASF/sam0/utils/syscalls/gcc/syscalls.o
_erelocate                                        src/ASF/sam0/utils/cmsis/samb11/source/gcc/startup_samb11.o
_etext                                            src/ASF/sam0/utils/cmsis/samb11/source/gcc/startup_samb11.o
_exit                                             src/ASF/sam0/utils/syscalls/gcc/syscalls.o
                                                  c:/program files (x86)/atmel/studio/7.0/toolchain/arm/arm-gnu-toolchain/bin/../lib/gcc/arm-none-eabi/5.3.1/../../../../arm-none-eabi/lib/armv6-m\libc_nano.a(lib_a-exit.o)
_ezero                                            src/ASF/sam0/utils/cmsis/samb11/source/gcc/startup_samb11.o
_fflush_r                                         c:/program files (x86)/atmel/studio/7.0/toolchain/arm/arm-gnu-toolchain/bin/../lib/gcc/arm-none-eabi/5.3.1/../../../../arm-none-eabi/lib/armv6-m\libc_nano.a(lib_a-fflush.o)
                                                  c:/program files (x86)/atmel/studio/7.0/toolchain/arm/arm-gnu-toolchain/bin/../lib/gcc/arm-none-eabi/5.3.1/../../../../arm-none-eabi/lib/armv6-m\libc_nano.a(lib_a-fvwrite.o)
                                                  c:/program files (x86)/atmel/studio/7.0/toolchain/arm/arm-gnu-toolchain/bin/../lib/gcc/arm-none-eabi/5.3.1/../../../../arm-none-eabi/lib/armv6-m\libc_nano.a(lib_a-wbuf.o)
                                                  c:/program files (x86)/atmel/studio/7.0/toolchain/arm/arm-gnu-toolchain/bin/../lib/gcc/arm-none-eabi/5.3.1/../../../../arm-none-eabi/lib/armv6-m\libc_nano.a(lib_a-setvbuf.o)
                                                  c:/program files (x86)/atmel/studio/7.0/toolchain/arm/arm-gnu-toolchain/bin/../lib/gcc/arm-none-eabi/5.3.1/../../../../arm-none-eabi/lib/armv6-m\libc_nano.a(lib_a-findfp.o)
_fini                                             c:/program files (x86)/atmel/studio/7.0/toolchain/arm/arm-gnu-toolchain/bin/../lib/gcc/arm-none-eabi/5.3.1/armv6-m/crti.o
_free_r                                           c:/program files (x86)/atmel/studio/7.0/toolchain/arm/arm-gnu-toolchain/bin/../lib/gcc/arm-none-eabi/5.3.1/../../../../arm-none-eabi/lib/armv6-m\libc_nano.a(lib_a-nano-freer.o)
                                                  c:/program files (x86)/atmel/studio/7.0/toolchain/arm/arm-gnu-toolchain/bin/../lib/gcc/arm-none-eabi/5.3.1/../../../../arm-none-eabi/lib/armv6-m\libc_nano.a(lib_a-nano-reallocr.o)
                                                  c:/program files (x86)/atmel/studio/7.0/toolchain/arm/arm-gnu-toolchain/bin/../lib/gcc/arm-none-eabi/5.3.1/../../../../arm-none-eabi/lib/armv6-m\libc_nano.a(lib_a-fvwrite.o)
                                                  c:/program files (x86)/atmel/studio/7.0/toolchain/arm/arm-gnu-toolchain/bin/../lib/gcc/arm-none-eabi/5.3.1/../../../../arm-none-eabi/lib/armv6-m\libc_nano.a(lib_a-reent.o)
                                                  c:/program files (x86)/atmel/studio/7.0/toolchain/arm/arm-gnu-toolchain/bin/../lib/gcc/arm-none-eabi/5.3.1/../../../../arm-none-eabi/lib/armv6-m\libc_nano.a(lib_a-nano-svfprintf.o)
                                                  c:/program files (x86)/atmel/studio/7.0/toolchain/arm/arm-gnu-toolchain/bin/../lib/gcc/arm-none-eabi/5.3.1/../../../../arm-none-eabi/lib/armv6-m\libc_nano.a(lib_a-malloc.o)
                                                  c:/program files (x86)/atmel/studio/7.0/toolchain/arm/arm-gnu-toolchain/bin/../lib/gcc/arm-none-eabi/5.3.1/../../../../arm-none-eabi/lib/armv6-m\libc_nano.a(lib_a-wsetup.o)
                                                  c:/program files (x86)/atmel/studio/7.0/toolchain/arm/arm-gnu-toolchain/bin/../lib/gcc/arm-none-eabi/5.3.1/../../../../arm-none-eabi/lib/armv6-m\libc_nano.a(lib_a-setvbuf.o)
                                                  c:/program files (x86)/atmel/studio/7.0/toolchain/arm/arm-gnu-toolchain/bin/../lib/gcc/arm-none-eabi/5.3.1/../../../../arm-none-eabi/lib/armv6-m\libc_nano.a(lib_a-fflush.o)
_fstat                                            src/ASF/sam0/utils/syscalls/gcc/syscalls.o
                                                  c:/program files (x86)/atmel/studio/7.0/toolchain/arm/arm-gnu-toolchain/bin/../lib/gcc/arm-none-eabi/5.3.1/../../../../arm-none-eabi/lib/armv6-m\libc_nano.a(lib_a-fstatr.o)
_fstat_r                                          c:/program files (x86)/atmel/studio/7.0/toolchain/arm/arm-gnu-toolchain/bin/../lib/gcc/arm-none-eabi/5.3.1/../../../../arm-none-eabi/lib/armv6-m\libc_nano.a(lib_a-fstatr.o)
                                                  c:/program files (x86)/atmel/studio/7.0/toolchain/arm/arm-gnu-toolchain/bin/../lib/gcc/arm-none-eabi/5.3.1/../../../../arm-none-eabi/lib/armv6-m\libc_nano.a(lib_a-makebuf.o)
_fwalk                                            c:/program files (x86)/atmel/studio/7.0/toolchain/arm/arm-gnu-toolchain/bin/../lib/gcc/arm-none-eabi/5.3.1/../../../../arm-none-eabi/lib/armv6-m\libc_nano.a(lib_a-fwalk.o)
                                                  c:/program files (x86)/atmel/studio/7.0/toolchain/arm/arm-gnu-toolchain/bin/../lib/gcc/arm-none-eabi/5.3.1/../../../../arm-none-eabi/lib/armv6-m\libc_nano.a(lib_a-findfp.o)
_fwalk_reent                                      c:/program files (x86)/atmel/studio/7.0/toolchain/arm/arm-gnu-toolchain/bin/../lib/gcc/arm-none-eabi/5.3.1/../../../../arm-none-eabi/lib/armv6-m\libc_nano.a(lib_a-fwalk.o)
                                                  c:/program files (x86)/atmel/studio/7.0/toolchain/arm/arm-gnu-toolchain/bin/../lib/gcc/arm-none-eabi/5.3.1/../../../../arm-none-eabi/lib/armv6-m\libc_nano.a(lib_a-findfp.o)
                                                  c:/program files (x86)/atmel/studio/7.0/toolchain/arm/arm-gnu-toolchain/bin/../lib/gcc/arm-none-eabi/5.3.1/../../../../arm-none-eabi/lib/armv6-m\libc_nano.a(lib_a-fflush.o)
_getpid                                           src/ASF/sam0/utils/syscalls/gcc/syscalls.o
_global_impure_ptr                                c:/program files (x86)/atmel/studio/7.0/toolchain/arm/arm-gnu-toolchain/bin/../lib/gcc/arm-none-eabi/5.3.1/../../../../arm-none-eabi/lib/armv6-m\libc_nano.a(lib_a-impure.o)
                                                  c:/program files (x86)/atmel/studio/7.0/toolchain/arm/arm-gnu-toolchain/bin/../lib/gcc/arm-none-eabi/5.3.1/../../../../arm-none-eabi/lib/armv6-m\libc_nano.a(lib_a-findfp.o)
                                                  c:/program files (x86)/atmel/studio/7.0/toolchain/arm/arm-gnu-toolchain/bin/../lib/gcc/arm-none-eabi/5.3.1/../../../../arm-none-eabi/lib/armv6-m\libc_nano.a(lib_a-fflush.o)
                                                  c:/program files (x86)/atmel/studio/7.0/toolchain/arm/arm-gnu-toolchain/bin/../lib/gcc/arm-none-eabi/5.3.1/../../../../arm-none-eabi/lib/armv6-m\libc_nano.a(lib_a-exit.o)
_gpio_instances                                   src/ASF/sam0/drivers/gpio/gpio.o
_impure_ptr                                       c:/program files (x86)/atmel/studio/7.0/toolchain/arm/arm-gnu-toolchain/bin/../lib/gcc/arm-none-eabi/5.3.1/../../../../arm-none-eabi/lib/armv6-m\libc_nano.a(lib_a-impure.o)
                                                  c:/program files (x86)/atmel/studio/7.0/toolchain/arm/arm-gnu-toolchain/bin/../lib/gcc/arm-none-eabi/5.3.1/../../../../arm-none-eabi/lib/armv6-m\libc_nano.a(lib_a-reent.o)
                                                  c:/program files (x86)/atmel/studio/7.0/toolchain/arm/arm-gnu-toolchain/bin/../lib/gcc/arm-none-eabi/5.3.1/../../../../arm-none-eabi/lib/armv6-m\libc_nano.a(lib_a-putc.o)
                                                  c:/program files (x86)/atmel/studio/7.0/toolchain/arm/arm-gnu-toolchain/bin/../lib/gcc/arm-none-eabi/5.3.1/../../../../arm-none-eabi/lib/armv6-m\libc_nano.a(lib_a-nano-vfprintf.o)
                                                  c:/program files (x86)/atmel/studio/7.0/toolchain/arm/arm-gnu-toolchain/bin/../lib/gcc/arm-none-eabi/5.3.1/../../../../arm-none-eabi/lib/armv6-m\libc_nano.a(lib_a-malloc.o)
                                                  c:/program files (x86)/atmel/studio/7.0/toolchain/arm/arm-gnu-toolchain/bin/../lib/gcc/arm-none-eabi/5.3.1/../../../../arm-none-eabi/lib/armv6-m\libc_nano.a(lib_a-wsetup.o)
                                                  c:/program files (x86)/atmel/studio/7.0/toolchain/arm/arm-gnu-toolchain/bin/../lib/gcc/arm-none-eabi/5.3.1/../../../../arm-none-eabi/lib/armv6-m\libc_nano.a(lib_a-wbuf.o)
                                                  c:/program files (x86)/atmel/studio/7.0/toolchain/arm/arm-gnu-toolchain/bin/../lib/gcc/arm-none-eabi/5.3.1/../../../../arm-none-eabi/lib/armv6-m\libc_nano.a(lib_a-snprintf.o)
                                                  c:/program files (x86)/atmel/studio/7.0/toolchain/arm/arm-gnu-toolchain/bin/../lib/gcc/arm-none-eabi/5.3.1/../../../../arm-none-eabi/lib/armv6-m\libc_nano.a(lib_a-setvbuf.o)
                                                  c:/program files (x86)/atmel/studio/7.0/toolchain/arm/arm-gnu-toolchain/bin/../lib/gcc/arm-none-eabi/5.3.1/../../../../arm-none-eabi/lib/armv6-m\libc_nano.a(lib_a-rand.o)
                                                  c:/program files (x86)/atmel/studio/7.0/toolchain/arm/arm-gnu-toolchain/bin/../lib/gcc/arm-none-eabi/5.3.1/../../../../arm-none-eabi/lib/armv6-m\libc_nano.a(lib_a-puts.o)
                                                  c:/program files (x86)/atmel/studio/7.0/toolchain/arm/arm-gnu-toolchain/bin/../lib/gcc/arm-none-eabi/5.3.1/../../../../arm-none-eabi/lib/armv6-m\libc_nano.a(lib_a-putchar.o)
                                                  c:/program files (x86)/atmel/studio/7.0/toolchain/arm/arm-gnu-toolchain/bin/../lib/gcc/arm-none-eabi/5.3.1/../../../../arm-none-eabi/lib/armv6-m\libc_nano.a(lib_a-printf.o)
                                                  c:/program files (x86)/atmel/studio/7.0/toolchain/arm/arm-gnu-toolchain/bin/../lib/gcc/arm-none-eabi/5.3.1/../../../../arm-none-eabi/lib/armv6-m\libc_nano.a(lib_a-findfp.o)
                                                  c:/program files (x86)/atmel/studio/7.0/toolchain/arm/arm-gnu-toolchain/bin/../lib/gcc/arm-none-eabi/5.3.1/../../../../arm-none-eabi/lib/armv6-m\libc_nano.a(lib_a-fflush.o)
                                                  src/LSM9DS1.o
                                                  src/LSM9DS0.o
                                                  src/BLE.o
                                                  src/ASF/thirdparty/wireless/ble_smart_sdk/services/uart/console_serial.o
_init                                             c:/program files (x86)/atmel/studio/7.0/toolchain/arm/arm-gnu-toolchain/bin/../lib/gcc/arm-none-eabi/5.3.1/armv6-m/crti.o
                                                  c:/program files (x86)/atmel/studio/7.0/toolchain/arm/arm-gnu-toolchain/bin/../lib/gcc/arm-none-eabi/5.3.1/../../../../arm-none-eabi/lib/armv6-m\libc_nano.a(lib_a-init.o)
_iprintf_r                                        c:/program files (x86)/atmel/studio/7.0/toolchain/arm/arm-gnu-toolchain/bin/../lib/gcc/arm-none-eabi/5.3.1/../../../../arm-none-eabi/lib/armv6-m\libc_nano.a(lib_a-printf.o)
_isatty                                           src/ASF/sam0/utils/syscalls/gcc/syscalls.o
                                                  c:/program files (x86)/atmel/studio/7.0/toolchain/arm/arm-gnu-toolchain/bin/../lib/gcc/arm-none-eabi/5.3.1/../../../../arm-none-eabi/lib/armv6-m\libc_nano.a(lib_a-isattyr.o)
_isatty_r                                         c:/program files (x86)/atmel/studio/7.0/toolchain/arm/arm-gnu-toolchain/bin/../lib/gcc/arm-none-eabi/5.3.1/../../../../arm-none-eabi/lib/armv6-m\libc_nano.a(lib_a-isattyr.o)
                                                  c:/program files (x86)/atmel/studio/7.0/toolchain/arm/arm-gnu-toolchain/bin/../lib/gcc/arm-none-eabi/5.3.1/../../../../arm-none-eabi/lib/armv6-m\libc_nano.a(lib_a-makebuf.o)
_kill                                             src/ASF/sam0/utils/syscalls/gcc/syscalls.o
_lseek                                            src/ASF/sam0/utils/syscalls/gcc/syscalls.o
                                                  c:/program files (x86)/atmel/studio/7.0/toolchain/arm/arm-gnu-toolchain/bin/../lib/gcc/arm-none-eabi/5.3.1/../../../../arm-none-eabi/lib/armv6-m\libc_nano.a(lib_a-lseekr.o)
_lseek_r                                          c:/program files (x86)/atmel/studio/7.0/toolchain/arm/arm-gnu-toolchain/bin/../lib/gcc/arm-none-eabi/5.3.1/../../../../arm-none-eabi/lib/armv6-m\libc_nano.a(lib_a-lseekr.o)
                                                  c:/program files (x86)/atmel/studio/7.0/toolchain/arm/arm-gnu-toolchain/bin/../lib/gcc/arm-none-eabi/5.3.1/../../../../arm-none-eabi/lib/armv6-m\libc_nano.a(lib_a-stdio.o)
_mainCRTStartup                                   c:/program files (x86)/atmel/studio/7.0/toolchain/arm/arm-gnu-toolchain/bin/../lib/gcc/arm-none-eabi/5.3.1/../../../../arm-none-eabi/lib/armv6-m/crt0.o
_malloc_r                                         c:/program files (x86)/atmel/studio/7.0/toolchain/arm/arm-gnu-toolchain/bin/../lib/gcc/arm-none-eabi/5.3.1/../../../../arm-none-eabi/lib/armv6-m\libc_nano.a(lib_a-nano-mallocr.o)
                                                  c:/program files (x86)/atmel/studio/7.0/toolchain/arm/arm-gnu-toolchain/bin/../lib/gcc/arm-none-eabi/5.3.1/../../../../arm-none-eabi/lib/armv6-m\libc_nano.a(lib_a-nano-reallocr.o)
                                                  c:/program files (x86)/atmel/studio/7.0/toolchain/arm/arm-gnu-toolchain/bin/../lib/gcc/arm-none-eabi/5.3.1/../../../../arm-none-eabi/lib/armv6-m\libc_nano.a(lib_a-fvwrite.o)
                                                  c:/program files (x86)/atmel/studio/7.0/toolchain/arm/arm-gnu-toolchain/bin/../lib/gcc/arm-none-eabi/5.3.1/../../../../arm-none-eabi/lib/armv6-m\libc_nano.a(lib_a-nano-svfprintf.o)
                                                  c:/program files (x86)/atmel/studio/7.0/toolchain/arm/arm-gnu-toolchain/bin/../lib/gcc/arm-none-eabi/5.3.1/../../../../arm-none-eabi/lib/armv6-m\libc_nano.a(lib_a-malloc.o)
                                                  c:/program files (x86)/atmel/studio/7.0/toolchain/arm/arm-gnu-toolchain/bin/../lib/gcc/arm-none-eabi/5.3.1/../../../../arm-none-eabi/lib/armv6-m\libc_nano.a(lib_a-makebuf.o)
                                                  c:/program files (x86)/atmel/studio/7.0/toolchain/arm/arm-gnu-toolchain/bin/../lib/gcc/arm-none-eabi/5.3.1/../../../../arm-none-eabi/lib/armv6-m\libc_nano.a(lib_a-findfp.o)
_malloc_usable_size_r                             c:/program files (x86)/atmel/studio/7.0/toolchain/arm/arm-gnu-toolchain/bin/../lib/gcc/arm-none-eabi/5.3.1/../../../../arm-none-eabi/lib/armv6-m\libc_nano.a(lib_a-nano-msizer.o)
                                                  c:/program files (x86)/atmel/studio/7.0/toolchain/arm/arm-gnu-toolchain/bin/../lib/gcc/arm-none-eabi/5.3.1/../../../../arm-none-eabi/lib/armv6-m\libc_nano.a(lib_a-nano-reallocr.o)
_printf_common                                    c:/program files (x86)/atmel/studio/7.0/toolchain/arm/arm-gnu-toolchain/bin/../lib/gcc/arm-none-eabi/5.3.1/../../../../arm-none-eabi/lib/armv6-m\libc_nano.a(lib_a-nano-vfprintf_i.o)
_printf_float                                     c:/program files (x86)/atmel/studio/7.0/toolchain/arm/arm-gnu-toolchain/bin/../lib/gcc/arm-none-eabi/5.3.1/../../../../arm-none-eabi/lib/armv6-m\libc_nano.a(lib_a-nano-vfprintf.o)
                                                  c:/program files (x86)/atmel/studio/7.0/toolchain/arm/arm-gnu-toolchain/bin/../lib/gcc/arm-none-eabi/5.3.1/../../../../arm-none-eabi/lib/armv6-m\libc_nano.a(lib_a-nano-svfprintf.o)
_printf_i                                         c:/program files (x86)/atmel/studio/7.0/toolchain/arm/arm-gnu-toolchain/bin/../lib/gcc/arm-none-eabi/5.3.1/../../../../arm-none-eabi/lib/armv6-m\libc_nano.a(lib_a-nano-vfprintf_i.o)
                                                  c:/program files (x86)/atmel/studio/7.0/toolchain/arm/arm-gnu-toolchain/bin/../lib/gcc/arm-none-eabi/5.3.1/../../../../arm-none-eabi/lib/armv6-m\libc_nano.a(lib_a-nano-vfprintf.o)
                                                  c:/program files (x86)/atmel/studio/7.0/toolchain/arm/arm-gnu-toolchain/bin/../lib/gcc/arm-none-eabi/5.3.1/../../../../arm-none-eabi/lib/armv6-m\libc_nano.a(lib_a-nano-svfprintf.o)
_printf_r                                         c:/program files (x86)/atmel/studio/7.0/toolchain/arm/arm-gnu-toolchain/bin/../lib/gcc/arm-none-eabi/5.3.1/../../../../arm-none-eabi/lib/armv6-m\libc_nano.a(lib_a-printf.o)
_putc_r                                           c:/program files (x86)/atmel/studio/7.0/toolchain/arm/arm-gnu-toolchain/bin/../lib/gcc/arm-none-eabi/5.3.1/../../../../arm-none-eabi/lib/armv6-m\libc_nano.a(lib_a-putc.o)
                                                  c:/program files (x86)/atmel/studio/7.0/toolchain/arm/arm-gnu-toolchain/bin/../lib/gcc/arm-none-eabi/5.3.1/../../../../arm-none-eabi/lib/armv6-m\libc_nano.a(lib_a-putchar.o)
_putchar_r                                        c:/program files (x86)/atmel/studio/7.0/toolchain/arm/arm-gnu-toolchain/bin/../lib/gcc/arm-none-eabi/5.3.1/../../../../arm-none-eabi/lib/armv6-m\libc_nano.a(lib_a-putchar.o)
_puts_r                                           c:/program files (x86)/atmel/studio/7.0/toolchain/arm/arm-gnu-toolchain/bin/../lib/gcc/arm-none-eabi/5.3.1/../../../../arm-none-eabi/lib/armv6-m\libc_nano.a(lib_a-puts.o)
_read                                             src/ASF/sam0/utils/stdio/read.o
                                                  c:/program files (x86)/atmel/studio/7.0/toolchain/arm/arm-gnu-toolchain/bin/../lib/gcc/arm-none-eabi/5.3.1/../../../../arm-none-eabi/lib/armv6-m\libc_nano.a(lib_a-readr.o)
_read_r                                           c:/program files (x86)/atmel/studio/7.0/toolchain/arm/arm-gnu-toolchain/bin/../lib/gcc/arm-none-eabi/5.3.1/../../../../arm-none-eabi/lib/armv6-m\libc_nano.a(lib_a-readr.o)
                                                  c:/program files (x86)/atmel/studio/7.0/toolchain/arm/arm-gnu-toolchain/bin/../lib/gcc/arm-none-eabi/5.3.1/../../../../arm-none-eabi/lib/armv6-m\libc_nano.a(lib_a-stdio.o)
_realloc_r                                        c:/program files (x86)/atmel/studio/7.0/toolchain/arm/arm-gnu-toolchain/bin/../lib/gcc/arm-none-eabi/5.3.1/../../../../arm-none-eabi/lib/armv6-m\libc_nano.a(lib_a-nano-reallocr.o)
                                                  c:/program files (x86)/atmel/studio/7.0/toolchain/arm/arm-gnu-toolchain/bin/../lib/gcc/arm-none-eabi/5.3.1/../../../../arm-none-eabi/lib/armv6-m\libc_nano.a(lib_a-fvwrite.o)
                                                  c:/program files (x86)/atmel/studio/7.0/toolchain/arm/arm-gnu-toolchain/bin/../lib/gcc/arm-none-eabi/5.3.1/../../../../arm-none-eabi/lib/armv6-m\libc_nano.a(lib_a-nano-svfprintf.o)
_reclaim_reent                                    c:/program files (x86)/atmel/studio/7.0/toolchain/arm/arm-gnu-toolchain/bin/../lib/gcc/arm-none-eabi/5.3.1/../../../../arm-none-eabi/lib/armv6-m\libc_nano.a(lib_a-reent.o)
_sbrk                                             src/ASF/sam0/utils/syscalls/gcc/syscalls.o
                                                  c:/program files (x86)/atmel/studio/7.0/toolchain/arm/arm-gnu-toolchain/bin/../lib/gcc/arm-none-eabi/5.3.1/../../../../arm-none-eabi/lib/armv6-m\libc_nano.a(lib_a-sbrkr.o)
_sbrk_r                                           c:/program files (x86)/atmel/studio/7.0/toolchain/arm/arm-gnu-toolchain/bin/../lib/gcc/arm-none-eabi/5.3.1/../../../../arm-none-eabi/lib/armv6-m\libc_nano.a(lib_a-sbrkr.o)
                                                  c:/program files (x86)/atmel/studio/7.0/toolchain/arm/arm-gnu-toolchain/bin/../lib/gcc/arm-none-eabi/5.3.1/../../../../arm-none-eabi/lib/armv6-m\libc_nano.a(lib_a-nano-mallocr.o)
_sniprintf_r                                      c:/program files (x86)/atmel/studio/7.0/toolchain/arm/arm-gnu-toolchain/bin/../lib/gcc/arm-none-eabi/5.3.1/../../../../arm-none-eabi/lib/armv6-m\libc_nano.a(lib_a-snprintf.o)
_snprintf_r                                       c:/program files (x86)/atmel/studio/7.0/toolchain/arm/arm-gnu-toolchain/bin/../lib/gcc/arm-none-eabi/5.3.1/../../../../arm-none-eabi/lib/armv6-m\libc_nano.a(lib_a-snprintf.o)
_srelocate                                        src/ASF/sam0/utils/cmsis/samb11/source/gcc/startup_samb11.o
_start                                            c:/program files (x86)/atmel/studio/7.0/toolchain/arm/arm-gnu-toolchain/bin/../lib/gcc/arm-none-eabi/5.3.1/../../../../arm-none-eabi/lib/armv6-m/crt0.o
_svfiprintf_r                                     c:/program files (x86)/atmel/studio/7.0/toolchain/arm/arm-gnu-toolchain/bin/../lib/gcc/arm-none-eabi/5.3.1/../../../../arm-none-eabi/lib/armv6-m\libc_nano.a(lib_a-nano-svfprintf.o)
_svfprintf_r                                      c:/program files (x86)/atmel/studio/7.0/toolchain/arm/arm-gnu-toolchain/bin/../lib/gcc/arm-none-eabi/5.3.1/../../../../arm-none-eabi/lib/armv6-m\libc_nano.a(lib_a-nano-svfprintf.o)
                                                  c:/program files (x86)/atmel/studio/7.0/toolchain/arm/arm-gnu-toolchain/bin/../lib/gcc/arm-none-eabi/5.3.1/../../../../arm-none-eabi/lib/armv6-m\libc_nano.a(lib_a-snprintf.o)
_szero                                            src/ASF/sam0/utils/cmsis/samb11/source/gcc/startup_samb11.o
_time_done                                        src/ASF/thirdparty/wireless/ble_smart_sdk/services/uart/console_serial.o
_time_start                                       src/ASF/thirdparty/wireless/ble_smart_sdk/services/uart/console_serial.o
_uart_instances                                   src/ASF/sam0/drivers/uart/uart.o
_vfiprintf_r                                      c:/program files (x86)/atmel/studio/7.0/toolchain/arm/arm-gnu-toolchain/bin/../lib/gcc/arm-none-eabi/5.3.1/../../../../arm-none-eabi/lib/armv6-m\libc_nano.a(lib_a-nano-vfprintf.o)
_vfprintf_r                                       c:/program files (x86)/atmel/studio/7.0/toolchain/arm/arm-gnu-toolchain/bin/../lib/gcc/arm-none-eabi/5.3.1/../../../../arm-none-eabi/lib/armv6-m\libc_nano.a(lib_a-nano-vfprintf.o)
                                                  c:/program files (x86)/atmel/studio/7.0/toolchain/arm/arm-gnu-toolchain/bin/../lib/gcc/arm-none-eabi/5.3.1/../../../../arm-none-eabi/lib/armv6-m\libc_nano.a(lib_a-printf.o)
_write                                            src/ASF/sam0/utils/stdio/write.o
                                                  c:/program files (x86)/atmel/studio/7.0/toolchain/arm/arm-gnu-toolchain/bin/../lib/gcc/arm-none-eabi/5.3.1/../../../../arm-none-eabi/lib/armv6-m\libc_nano.a(lib_a-writer.o)
_write_r                                          c:/program files (x86)/atmel/studio/7.0/toolchain/arm/arm-gnu-toolchain/bin/../lib/gcc/arm-none-eabi/5.3.1/../../../../arm-none-eabi/lib/armv6-m\libc_nano.a(lib_a-writer.o)
                                                  c:/program files (x86)/atmel/studio/7.0/toolchain/arm/arm-gnu-toolchain/bin/../lib/gcc/arm-none-eabi/5.3.1/../../../../arm-none-eabi/lib/armv6-m\libc_nano.a(lib_a-stdio.o)
accelerometer_data                                src/main_sam_b.o
acquire_sleep_lock                                src/ASF/thirdparty/wireless/ble_smart_sdk/src/platform_drv.o
                                                  src/main_sam_b.o
                                                  src/ASF/thirdparty/wireless/ble_smart_sdk/ble_services/ble_mgr/ble_manager.o
actualfreq                                        src/ASF/thirdparty/wireless/ble_smart_sdk/src/platform_drv.o
adc_disable                                       src/ASF/sam0/drivers/adc/adc_sam_b/adc_sam_b.o
adc_enable                                        src/ASF/sam0/drivers/adc/adc_sam_b/adc_sam_b.o
                                                  src/ADC_GPIO.o
adc_get_config_defaults                           src/ASF/sam0/drivers/adc/adc_sam_b/adc_sam_b.o
                                                  src/ADC_GPIO.o
adc_get_status                                    src/ASF/sam0/drivers/adc/adc_sam_b/adc_sam_b.o
adc_init                                          src/ASF/sam0/drivers/adc/adc_sam_b/adc_sam_b.o
                                                  src/ADC_GPIO.o
adc_read                                          src/ASF/sam0/drivers/adc/adc_sam_b/adc_sam_b.o
                                                  src/main_sam_b.o
adc_reset                                         src/ASF/sam0/drivers/adc/adc_sam_b/adc_sam_b.o
ag_read_byte                                      src/LSM9DS1.o
                                                  src/main_sam_b.o
ag_read_bytes                                     src/LSM9DS1.o
ag_transfer                                       src/LSM9DS1.o
ag_write                                          src/LSM9DS1.o
am_read_byte                                      src/LSM9DS0.o
am_read_bytes                                     src/LSM9DS0.o
am_transfer                                       src/LSM9DS0.o
am_write                                          src/LSM9DS0.o
app_entry                                         src/ASF/sam0/utils/cmsis/samb11/source/gcc/startup_samb11.o
app_task_type                                     C:\Senior-Design\Cymote\Cymote2\Cymote2\src\ASF\thirdparty\wireless\ble_smart_sdk\lib\cm0\gcc\libblusdk.a(gap.o)
                                                  C:\Senior-Design\Cymote\Cymote2\Cymote2\src\ASF\thirdparty\wireless\ble_smart_sdk\lib\cm0\gcc\libblusdk.a(htpt_task.o)
                                                  C:\Senior-Design\Cymote\Cymote2\Cymote2\src\ASF\thirdparty\wireless\ble_smart_sdk\lib\cm0\gcc\libblusdk.a(gattm_task.o)
                                                  C:\Senior-Design\Cymote\Cymote2\Cymote2\src\ASF\thirdparty\wireless\ble_smart_sdk\lib\cm0\gcc\libblusdk.a(gattc_task.o)
                                                  C:\Senior-Design\Cymote\Cymote2\Cymote2\src\ASF\thirdparty\wireless\ble_smart_sdk\lib\cm0\gcc\libblusdk.a(gapm_task.o)
                                                  C:\Senior-Design\Cymote\Cymote2\Cymote2\src\ASF\thirdparty\wireless\ble_smart_sdk\lib\cm0\gcc\libblusdk.a(gapc_task.o)
                                                  C:\Senior-Design\Cymote\Cymote2\Cymote2\src\ASF\thirdparty\wireless\ble_smart_sdk\lib\cm0\gcc\libblusdk.a(dbg_task.o)
                                                  C:\Senior-Design\Cymote\Cymote2\Cymote2\src\ASF\thirdparty\wireless\ble_smart_sdk\lib\cm0\gcc\libblusdk.a(calib_task.o)
                                                  C:\Senior-Design\Cymote\Cymote2\Cymote2\src\ASF\thirdparty\wireless\ble_smart_sdk\lib\cm0\gcc\libblusdk.a(l2cc_task.o)
                                                  C:\Senior-Design\Cymote\Cymote2\Cymote2\src\ASF\thirdparty\wireless\ble_smart_sdk\lib\cm0\gcc\libblusdk.a(gatt_server.o)
apps_resume_cb                                    src/ASF/thirdparty/wireless/ble_smart_sdk/src/platform_drv.o
at_ble_addr_get                                   C:\Senior-Design\Cymote\Cymote2\Cymote2\src\ASF\thirdparty\wireless\ble_smart_sdk\lib\cm0\gcc\libblusdk.a(gap.o)
                                                  src/ASF/thirdparty/wireless/ble_smart_sdk/ble_services/ble_mgr/ble_manager.o
at_ble_addr_set                                   C:\Senior-Design\Cymote\Cymote2\Cymote2\src\ASF\thirdparty\wireless\ble_smart_sdk\lib\cm0\gcc\libblusdk.a(gap.o)
                                                  src/ASF/thirdparty/wireless/ble_smart_sdk/ble_services/ble_mgr/ble_manager.o
at_ble_adv_data_set                               C:\Senior-Design\Cymote\Cymote2\Cymote2\src\ASF\thirdparty\wireless\ble_smart_sdk\lib\cm0\gcc\libblusdk.a(gap.o)
                                                  src/ASF/thirdparty/wireless/ble_smart_sdk/ble_services/ble_mgr/ble_manager.o
at_ble_adv_start                                  C:\Senior-Design\Cymote\Cymote2\Cymote2\src\ASF\thirdparty\wireless\ble_smart_sdk\lib\cm0\gcc\libblusdk.a(gap.o)
                                                  src/BLE.o
at_ble_adv_stop                                   C:\Senior-Design\Cymote\Cymote2\Cymote2\src\ASF\thirdparty\wireless\ble_smart_sdk\lib\cm0\gcc\libblusdk.a(gap.o)
at_ble_authenticate                               C:\Senior-Design\Cymote\Cymote2\Cymote2\src\ASF\thirdparty\wireless\ble_smart_sdk\lib\cm0\gcc\libblusdk.a(security.o)
                                                  src/ASF/thirdparty/wireless/ble_smart_sdk/ble_services/ble_mgr/ble_manager.o
at_ble_calib_config                               C:\Senior-Design\Cymote\Cymote2\Cymote2\src\ASF\thirdparty\wireless\ble_smart_sdk\lib\cm0\gcc\libblusdk.a(gap.o)
at_ble_calib_get_temp                             C:\Senior-Design\Cymote\Cymote2\Cymote2\src\ASF\thirdparty\wireless\ble_smart_sdk\lib\cm0\gcc\libblusdk.a(gap.o)
at_ble_calib_get_voltage                          C:\Senior-Design\Cymote\Cymote2\Cymote2\src\ASF\thirdparty\wireless\ble_smart_sdk\lib\cm0\gcc\libblusdk.a(gap.o)
at_ble_characteristic_discover_all                C:\Senior-Design\Cymote\Cymote2\Cymote2\src\ASF\thirdparty\wireless\ble_smart_sdk\lib\cm0\gcc\libblusdk.a(gatt_client.o)
at_ble_characteristic_discover_by_uuid            C:\Senior-Design\Cymote\Cymote2\Cymote2\src\ASF\thirdparty\wireless\ble_smart_sdk\lib\cm0\gcc\libblusdk.a(gatt_client.o)
at_ble_characteristic_read                        C:\Senior-Design\Cymote\Cymote2\Cymote2\src\ASF\thirdparty\wireless\ble_smart_sdk\lib\cm0\gcc\libblusdk.a(gatt_client.o)
at_ble_characteristic_read_by_uuid                C:\Senior-Design\Cymote\Cymote2\Cymote2\src\ASF\thirdparty\wireless\ble_smart_sdk\lib\cm0\gcc\libblusdk.a(gatt_client.o)
at_ble_characteristic_read_long                   C:\Senior-Design\Cymote\Cymote2\Cymote2\src\ASF\thirdparty\wireless\ble_smart_sdk\lib\cm0\gcc\libblusdk.a(gatt_client.o)
at_ble_characteristic_read_multiple               C:\Senior-Design\Cymote\Cymote2\Cymote2\src\ASF\thirdparty\wireless\ble_smart_sdk\lib\cm0\gcc\libblusdk.a(gatt_client.o)
at_ble_characteristic_reliable_write_cancel       C:\Senior-Design\Cymote\Cymote2\Cymote2\src\ASF\thirdparty\wireless\ble_smart_sdk\lib\cm0\gcc\libblusdk.a(gatt_client.o)
at_ble_characteristic_reliable_write_execute      C:\Senior-Design\Cymote\Cymote2\Cymote2\src\ASF\thirdparty\wireless\ble_smart_sdk\lib\cm0\gcc\libblusdk.a(gatt_client.o)
at_ble_characteristic_reliable_write_prepare      C:\Senior-Design\Cymote\Cymote2\Cymote2\src\ASF\thirdparty\wireless\ble_smart_sdk\lib\cm0\gcc\libblusdk.a(gatt_client.o)
at_ble_characteristic_value_get                   C:\Senior-Design\Cymote\Cymote2\Cymote2\src\ASF\thirdparty\wireless\ble_smart_sdk\lib\cm0\gcc\libblusdk.a(gatt_server.o)
at_ble_characteristic_value_set                   C:\Senior-Design\Cymote\Cymote2\Cymote2\src\ASF\thirdparty\wireless\ble_smart_sdk\lib\cm0\gcc\libblusdk.a(gatt_server.o)
                                                  src/main_sam_b.o
at_ble_characteristic_write                       C:\Senior-Design\Cymote\Cymote2\Cymote2\src\ASF\thirdparty\wireless\ble_smart_sdk\lib\cm0\gcc\libblusdk.a(gatt_client.o)
at_ble_chip_id_get                                C:\Senior-Design\Cymote\Cymote2\Cymote2\src\ASF\thirdparty\wireless\ble_smart_sdk\lib\cm0\gcc\libblusdk.a(gap.o)
at_ble_conn_update_reply                          C:\Senior-Design\Cymote\Cymote2\Cymote2\src\ASF\thirdparty\wireless\ble_smart_sdk\lib\cm0\gcc\libblusdk.a(gap.o)
                                                  src/ASF/thirdparty/wireless/ble_smart_sdk/ble_services/ble_mgr/ble_manager.o
at_ble_connect                                    C:\Senior-Design\Cymote\Cymote2\Cymote2\src\ASF\thirdparty\wireless\ble_smart_sdk\lib\cm0\gcc\libblusdk.a(gap.o)
                                                  src/ASF/thirdparty/wireless/ble_smart_sdk/ble_services/ble_mgr/ble_manager.o
at_ble_connect_cancel                             C:\Senior-Design\Cymote\Cymote2\Cymote2\src\ASF\thirdparty\wireless\ble_smart_sdk\lib\cm0\gcc\libblusdk.a(gap.o)
at_ble_connection_param_update                    C:\Senior-Design\Cymote\Cymote2\Cymote2\src\ASF\thirdparty\wireless\ble_smart_sdk\lib\cm0\gcc\libblusdk.a(gap.o)
at_ble_descriptor_discover_all                    C:\Senior-Design\Cymote\Cymote2\Cymote2\src\ASF\thirdparty\wireless\ble_smart_sdk\lib\cm0\gcc\libblusdk.a(gatt_client.o)
at_ble_descriptor_value_get                       C:\Senior-Design\Cymote\Cymote2\Cymote2\src\ASF\thirdparty\wireless\ble_smart_sdk\lib\cm0\gcc\libblusdk.a(gatt_server.o)
at_ble_descriptor_value_set                       C:\Senior-Design\Cymote\Cymote2\Cymote2\src\ASF\thirdparty\wireless\ble_smart_sdk\lib\cm0\gcc\libblusdk.a(gatt_server.o)
at_ble_device_name_set                            C:\Senior-Design\Cymote\Cymote2\Cymote2\src\ASF\thirdparty\wireless\ble_smart_sdk\lib\cm0\gcc\libblusdk.a(gap.o)
                                                  src/ASF/thirdparty/wireless/ble_smart_sdk/ble_services/ble_mgr/ble_manager.o
at_ble_disconnect                                 C:\Senior-Design\Cymote\Cymote2\Cymote2\src\ASF\thirdparty\wireless\ble_smart_sdk\lib\cm0\gcc\libblusdk.a(gap.o)
                                                  src/ASF/thirdparty/wireless/ble_smart_sdk/ble_services/ble_mgr/ble_manager.o
at_ble_encryption_request_reply                   C:\Senior-Design\Cymote\Cymote2\Cymote2\src\ASF\thirdparty\wireless\ble_smart_sdk\lib\cm0\gcc\libblusdk.a(security.o)
                                                  src/ASF/thirdparty/wireless/ble_smart_sdk/ble_services/ble_mgr/ble_manager.o
at_ble_encryption_start                           C:\Senior-Design\Cymote\Cymote2\Cymote2\src\ASF\thirdparty\wireless\ble_smart_sdk\lib\cm0\gcc\libblusdk.a(security.o)
                                                  src/ASF/thirdparty/wireless/ble_smart_sdk/ble_services/ble_mgr/ble_manager.o
at_ble_event_get                                  C:\Senior-Design\Cymote\Cymote2\Cymote2\src\ASF\thirdparty\wireless\ble_smart_sdk\lib\cm0\gcc\libblusdk.a(event.o)
                                                  C:\Senior-Design\Cymote\Cymote2\Cymote2\src\ASF\thirdparty\wireless\ble_smart_sdk\lib\cm0\gcc\libblusdk.a(gap.o)
                                                  src/ASF/thirdparty/wireless/ble_smart_sdk/ble_services/ble_mgr/ble_manager.o
at_ble_event_user_defined_post                    C:\Senior-Design\Cymote\Cymote2\Cymote2\src\ASF\thirdparty\wireless\ble_smart_sdk\lib\cm0\gcc\libblusdk.a(event.o)
at_ble_exchange_mtu                               C:\Senior-Design\Cymote\Cymote2\Cymote2\src\ASF\thirdparty\wireless\ble_smart_sdk\lib\cm0\gcc\libblusdk.a(gatt_client.o)
at_ble_firmware_version_get                       C:\Senior-Design\Cymote\Cymote2\Cymote2\src\ASF\thirdparty\wireless\ble_smart_sdk\lib\cm0\gcc\libblusdk.a(gap.o)
at_ble_gap_get_peer_deviceinfo                    C:\Senior-Design\Cymote\Cymote2\Cymote2\src\ASF\thirdparty\wireless\ble_smart_sdk\lib\cm0\gcc\libblusdk.a(gap.o)
at_ble_get_whitelist_size                         C:\Senior-Design\Cymote\Cymote2\Cymote2\src\ASF\thirdparty\wireless\ble_smart_sdk\lib\cm0\gcc\libblusdk.a(gap.o)
at_ble_included_service_discover_all              C:\Senior-Design\Cymote\Cymote2\Cymote2\src\ASF\thirdparty\wireless\ble_smart_sdk\lib\cm0\gcc\libblusdk.a(gatt_client.o)
at_ble_indication_send                            C:\Senior-Design\Cymote\Cymote2\Cymote2\src\ASF\thirdparty\wireless\ble_smart_sdk\lib\cm0\gcc\libblusdk.a(gatt_server.o)
at_ble_init                                       C:\Senior-Design\Cymote\Cymote2\Cymote2\src\ASF\thirdparty\wireless\ble_smart_sdk\lib\cm0\gcc\libblusdk.a(gap.o)
                                                  src/ASF/thirdparty/wireless/ble_smart_sdk/ble_services/ble_mgr/ble_manager.o
at_ble_ll_reset                                   C:\Senior-Design\Cymote\Cymote2\Cymote2\src\ASF\thirdparty\wireless\ble_smart_sdk\lib\cm0\gcc\libblusdk.a(gap.o)
at_ble_notification_send                          C:\Senior-Design\Cymote\Cymote2\Cymote2\src\ASF\thirdparty\wireless\ble_smart_sdk\lib\cm0\gcc\libblusdk.a(gatt_server.o)
at_ble_pair_key_reply                             C:\Senior-Design\Cymote\Cymote2\Cymote2\src\ASF\thirdparty\wireless\ble_smart_sdk\lib\cm0\gcc\libblusdk.a(security.o)
                                                  src/ASF/thirdparty/wireless/ble_smart_sdk/ble_services/ble_mgr/ble_manager.o
at_ble_primary_service_define                     C:\Senior-Design\Cymote\Cymote2\Cymote2\src\ASF\thirdparty\wireless\ble_smart_sdk\lib\cm0\gcc\libblusdk.a(gatt_server.o)
at_ble_primary_service_discover_all               C:\Senior-Design\Cymote\Cymote2\Cymote2\src\ASF\thirdparty\wireless\ble_smart_sdk\lib\cm0\gcc\libblusdk.a(gatt_client.o)
at_ble_primary_service_discover_by_uuid           C:\Senior-Design\Cymote\Cymote2\Cymote2\src\ASF\thirdparty\wireless\ble_smart_sdk\lib\cm0\gcc\libblusdk.a(gatt_client.o)
at_ble_random_address_resolve                     C:\Senior-Design\Cymote\Cymote2\Cymote2\src\ASF\thirdparty\wireless\ble_smart_sdk\lib\cm0\gcc\libblusdk.a(gap.o)
                                                  src/ASF/thirdparty/wireless/ble_smart_sdk/ble_services/ble_mgr/ble_manager.o
at_ble_read_authorize_reply                       C:\Senior-Design\Cymote\Cymote2\Cymote2\src\ASF\thirdparty\wireless\ble_smart_sdk\lib\cm0\gcc\libblusdk.a(gatt_server.o)
at_ble_rx_power_get                               C:\Senior-Design\Cymote\Cymote2\Cymote2\src\ASF\thirdparty\wireless\ble_smart_sdk\lib\cm0\gcc\libblusdk.a(gap.o)
at_ble_scan_start                                 C:\Senior-Design\Cymote\Cymote2\Cymote2\src\ASF\thirdparty\wireless\ble_smart_sdk\lib\cm0\gcc\libblusdk.a(gap.o)
                                                  src/ASF/thirdparty/wireless/ble_smart_sdk/ble_services/ble_mgr/ble_manager.o
at_ble_scan_stop                                  C:\Senior-Design\Cymote\Cymote2\Cymote2\src\ASF\thirdparty\wireless\ble_smart_sdk\lib\cm0\gcc\libblusdk.a(gap.o)
                                                  src/ASF/thirdparty/wireless/ble_smart_sdk/ble_services/ble_mgr/ble_manager.o
at_ble_secondary_service_define                   C:\Senior-Design\Cymote\Cymote2\Cymote2\src\ASF\thirdparty\wireless\ble_smart_sdk\lib\cm0\gcc\libblusdk.a(gatt_server.o)
at_ble_send_sec_config                            C:\Senior-Design\Cymote\Cymote2\Cymote2\src\ASF\thirdparty\wireless\ble_smart_sdk\lib\cm0\gcc\libblusdk.a(gap.o)
at_ble_send_service_changed_indication            C:\Senior-Design\Cymote\Cymote2\Cymote2\src\ASF\thirdparty\wireless\ble_smart_sdk\lib\cm0\gcc\libblusdk.a(gatt_server.o)
at_ble_send_slave_sec_request                     C:\Senior-Design\Cymote\Cymote2\Cymote2\src\ASF\thirdparty\wireless\ble_smart_sdk\lib\cm0\gcc\libblusdk.a(security.o)
at_ble_service_define                             C:\Senior-Design\Cymote\Cymote2\Cymote2\src\ASF\thirdparty\wireless\ble_smart_sdk\lib\cm0\gcc\libblusdk.a(gatt_server.o)
                                                  src/BLE.o
at_ble_set_adv_channel_Map                        C:\Senior-Design\Cymote\Cymote2\Cymote2\src\ASF\thirdparty\wireless\ble_smart_sdk\lib\cm0\gcc\libblusdk.a(gap.o)
at_ble_set_att_config                             C:\Senior-Design\Cymote\Cymote2\Cymote2\src\ASF\thirdparty\wireless\ble_smart_sdk\lib\cm0\gcc\libblusdk.a(gap.o)
at_ble_set_channel_map                            C:\Senior-Design\Cymote\Cymote2\Cymote2\src\ASF\thirdparty\wireless\ble_smart_sdk\lib\cm0\gcc\libblusdk.a(gap.o)
at_ble_set_conn_mode                              C:\Senior-Design\Cymote\Cymote2\Cymote2\src\ASF\thirdparty\wireless\ble_smart_sdk\lib\cm0\gcc\libblusdk.a(gap.o)
at_ble_set_dev_config                             C:\Senior-Design\Cymote\Cymote2\Cymote2\src\ASF\thirdparty\wireless\ble_smart_sdk\lib\cm0\gcc\libblusdk.a(gap.o)
                                                  src/ASF/thirdparty/wireless/ble_smart_sdk/ble_services/ble_mgr/ble_manager.o
at_ble_set_gap_deviceinfo                         C:\Senior-Design\Cymote\Cymote2\Cymote2\src\ASF\thirdparty\wireless\ble_smart_sdk\lib\cm0\gcc\libblusdk.a(gap.o)
at_ble_set_privacy_key                            C:\Senior-Design\Cymote\Cymote2\Cymote2\src\ASF\thirdparty\wireless\ble_smart_sdk\lib\cm0\gcc\libblusdk.a(gap.o)
at_ble_tx_power_get                               C:\Senior-Design\Cymote\Cymote2\Cymote2\src\ASF\thirdparty\wireless\ble_smart_sdk\lib\cm0\gcc\libblusdk.a(gap.o)
at_ble_tx_power_set                               C:\Senior-Design\Cymote\Cymote2\Cymote2\src\ASF\thirdparty\wireless\ble_smart_sdk\lib\cm0\gcc\libblusdk.a(gap.o)
at_ble_uuid_len2type                              C:\Senior-Design\Cymote\Cymote2\Cymote2\src\ASF\thirdparty\wireless\ble_smart_sdk\lib\cm0\gcc\libblusdk.a(gap.o)
                                                  C:\Senior-Design\Cymote\Cymote2\Cymote2\src\ASF\thirdparty\wireless\ble_smart_sdk\lib\cm0\gcc\libblusdk.a(gattc_task.o)
at_ble_uuid_type2len                              C:\Senior-Design\Cymote\Cymote2\Cymote2\src\ASF\thirdparty\wireless\ble_smart_sdk\lib\cm0\gcc\libblusdk.a(gap.o)
                                                  C:\Senior-Design\Cymote\Cymote2\Cymote2\src\ASF\thirdparty\wireless\ble_smart_sdk\lib\cm0\gcc\libblusdk.a(gatt_server.o)
                                                  C:\Senior-Design\Cymote\Cymote2\Cymote2\src\ASF\thirdparty\wireless\ble_smart_sdk\lib\cm0\gcc\libblusdk.a(gatt_client.o)
at_ble_whitelist_add                              C:\Senior-Design\Cymote\Cymote2\Cymote2\src\ASF\thirdparty\wireless\ble_smart_sdk\lib\cm0\gcc\libblusdk.a(gap.o)
at_ble_whitelist_clear                            C:\Senior-Design\Cymote\Cymote2\Cymote2\src\ASF\thirdparty\wireless\ble_smart_sdk\lib\cm0\gcc\libblusdk.a(gap.o)
at_ble_whitelist_remove                           C:\Senior-Design\Cymote\Cymote2\Cymote2\src\ASF\thirdparty\wireless\ble_smart_sdk\lib\cm0\gcc\libblusdk.a(gap.o)
at_ble_write_authorize_reply                      C:\Senior-Design\Cymote\Cymote2\Cymote2\src\ASF\thirdparty\wireless\ble_smart_sdk\lib\cm0\gcc\libblusdk.a(gatt_server.o)
atexit                                            c:/program files (x86)/atmel/studio/7.0/toolchain/arm/arm-gnu-toolchain/bin/../lib/gcc/arm-none-eabi/5.3.1/../../../../arm-none-eabi/lib/armv6-m/crt0.o
att_db_data                                       src/ASF/thirdparty/wireless/ble_smart_sdk/ble_services/ble_mgr/ble_manager.o
bit_read                                          src/LSM9DS1.o
bit_read_0                                        src/LSM9DS0.o
bit_write_high                                    src/LSM9DS1.o
bit_write_high_0                                  src/LSM9DS0.o
ble_advertisement_data_set                        src/ASF/thirdparty/wireless/ble_smart_sdk/ble_services/ble_mgr/ble_manager.o
                                                  src/BLE.o
ble_characteristic_write_cmd_complete_handler     src/ASF/thirdparty/wireless/ble_smart_sdk/ble_services/ble_mgr/ble_manager.o
ble_check_device_state                            src/ASF/thirdparty/wireless/ble_smart_sdk/ble_services/ble_mgr/ble_manager.o
ble_check_disconnected_iscentral                  src/ASF/thirdparty/wireless/ble_smart_sdk/ble_services/ble_mgr/ble_manager.o
ble_check_iscentral                               src/ASF/thirdparty/wireless/ble_smart_sdk/ble_services/ble_mgr/ble_manager.o
ble_check_ispheripheral                           src/ASF/thirdparty/wireless/ble_smart_sdk/ble_services/ble_mgr/ble_manager.o
ble_conn_param_update                             src/ASF/thirdparty/wireless/ble_smart_sdk/ble_services/ble_mgr/ble_manager.o
ble_conn_param_update_req                         src/ASF/thirdparty/wireless/ble_smart_sdk/ble_services/ble_mgr/ble_manager.o
ble_connected_app_event                           src/BLE.o
                                                  src/main_sam_b.o
ble_connected_device_role                         src/ASF/thirdparty/wireless/ble_smart_sdk/ble_services/ble_mgr/ble_manager.o
ble_connected_state_handler                       src/ASF/thirdparty/wireless/ble_smart_sdk/ble_services/ble_mgr/ble_manager.o
ble_dev_info                                      src/ASF/thirdparty/wireless/ble_smart_sdk/ble_services/ble_mgr/ble_manager.o
ble_device_count                                  src/ASF/thirdparty/wireless/ble_smart_sdk/ble_services/ble_mgr/ble_manager.o
ble_device_init                                   src/ASF/thirdparty/wireless/ble_smart_sdk/ble_services/ble_mgr/ble_manager.o
                                                  src/main_sam_b.o
ble_disconnected_app_event                        src/BLE.o
                                                  src/main_sam_b.o
ble_disconnected_device_role                      src/ASF/thirdparty/wireless/ble_smart_sdk/ble_services/ble_mgr/ble_manager.o
ble_disconnected_state_handler                    src/ASF/thirdparty/wireless/ble_smart_sdk/ble_services/ble_mgr/ble_manager.o
ble_encryption_request_handler                    src/ASF/thirdparty/wireless/ble_smart_sdk/ble_services/ble_mgr/ble_manager.o
ble_encryption_status_change_handler              src/ASF/thirdparty/wireless/ble_smart_sdk/ble_services/ble_mgr/ble_manager.o
ble_event_manager                                 src/ASF/thirdparty/wireless/ble_smart_sdk/ble_services/ble_mgr/ble_manager.o
ble_event_params                                  src/ASF/thirdparty/wireless/ble_smart_sdk/ble_services/ble_mgr/ble_manager.o
ble_event_task                                    src/ASF/thirdparty/wireless/ble_smart_sdk/ble_services/ble_mgr/ble_manager.o
                                                  src/main_sam_b.o
ble_get_ulp_status                                src/ASF/thirdparty/wireless/ble_smart_sdk/ble_services/ble_mgr/ble_manager.o
ble_mgr_custom_event_cb                           src/ASF/thirdparty/wireless/ble_smart_sdk/ble_services/ble_mgr/ble_manager.o
ble_mgr_dtm_event_cb                              src/ASF/thirdparty/wireless/ble_smart_sdk/ble_services/ble_mgr/ble_manager.o
ble_mgr_events_callback_handler                   src/ASF/thirdparty/wireless/ble_smart_sdk/ble_services/ble_mgr/ble_manager.o
                                                  src/main_sam_b.o
ble_mgr_gap_event_cb                              src/ASF/thirdparty/wireless/ble_smart_sdk/ble_services/ble_mgr/ble_manager.o
ble_mgr_gatt_client_event_cb                      src/ASF/thirdparty/wireless/ble_smart_sdk/ble_services/ble_mgr/ble_manager.o
ble_mgr_gatt_server_event_cb                      src/ASF/thirdparty/wireless/ble_smart_sdk/ble_services/ble_mgr/ble_manager.o
ble_mgr_htpt_event_cb                             src/ASF/thirdparty/wireless/ble_smart_sdk/ble_services/ble_mgr/ble_manager.o
ble_mgr_l2cap_event_cb                            src/ASF/thirdparty/wireless/ble_smart_sdk/ble_services/ble_mgr/ble_manager.o
ble_mtu_changed_cmd_complete_handler              src/ASF/thirdparty/wireless/ble_smart_sdk/ble_services/ble_mgr/ble_manager.o
ble_mtu_changed_indication_handler                src/ASF/thirdparty/wireless/ble_smart_sdk/ble_services/ble_mgr/ble_manager.o
ble_pair_done_handler                             src/ASF/thirdparty/wireless/ble_smart_sdk/ble_services/ble_mgr/ble_manager.o
ble_pair_key_request_handler                      src/ASF/thirdparty/wireless/ble_smart_sdk/ble_services/ble_mgr/ble_manager.o
ble_pair_request_handler                          src/ASF/thirdparty/wireless/ble_smart_sdk/ble_services/ble_mgr/ble_manager.o
ble_paired_app_event                              src/main_sam_b.o
                                                  src/BLE.o
ble_resolv_rand_addr_handler                      src/ASF/thirdparty/wireless/ble_smart_sdk/ble_services/ble_mgr/ble_manager.o
ble_scan_info_handler                             src/ASF/thirdparty/wireless/ble_smart_sdk/ble_services/ble_mgr/ble_manager.o
ble_scan_report_handler                           src/ASF/thirdparty/wireless/ble_smart_sdk/ble_services/ble_mgr/ble_manager.o
ble_send_slave_sec_request                        src/ASF/thirdparty/wireless/ble_smart_sdk/ble_services/ble_mgr/ble_manager.o
ble_set_device_name                               src/ASF/thirdparty/wireless/ble_smart_sdk/ble_services/ble_mgr/ble_manager.o
ble_set_ulp_mode                                  src/ASF/thirdparty/wireless/ble_smart_sdk/ble_services/ble_mgr/ble_manager.o
ble_slave_security_request_handler                src/ASF/thirdparty/wireless/ble_smart_sdk/ble_services/ble_mgr/ble_manager.o
ble_undefined_event_handler                       src/ASF/thirdparty/wireless/ble_smart_sdk/ble_services/ble_mgr/ble_manager.o
ble_user_event_cb                                 src/ASF/thirdparty/wireless/ble_smart_sdk/ble_services/ble_mgr/ble_manager.o
board_init                                        src/ASF/sam0/boards/samb11_xplained_pro/board_init.o
button_cb_func                                    src/ASF/thirdparty/wireless/ble_smart_sdk/services/gpio/button.o
button_init                                       src/ASF/thirdparty/wireless/ble_smart_sdk/services/gpio/button.o
                                                  src/main_sam_b.o
button_register_callback                          src/ASF/thirdparty/wireless/ble_smart_sdk/services/gpio/button.o
                                                  src/main_sam_b.o
buttons                                           src/main_sam_b.o
calib_config                                      C:\Senior-Design\Cymote\Cymote2\Cymote2\src\ASF\thirdparty\wireless\ble_smart_sdk\lib\cm0\gcc\libblusdk.a(calib_task.o)
                                                  C:\Senior-Design\Cymote\Cymote2\Cymote2\src\ASF\thirdparty\wireless\ble_smart_sdk\lib\cm0\gcc\libblusdk.a(gap.o)
calib_get_temp                                    C:\Senior-Design\Cymote\Cymote2\Cymote2\src\ASF\thirdparty\wireless\ble_smart_sdk\lib\cm0\gcc\libblusdk.a(calib_task.o)
                                                  C:\Senior-Design\Cymote\Cymote2\Cymote2\src\ASF\thirdparty\wireless\ble_smart_sdk\lib\cm0\gcc\libblusdk.a(gap.o)
calib_get_voltage                                 C:\Senior-Design\Cymote\Cymote2\Cymote2\src\ASF\thirdparty\wireless\ble_smart_sdk\lib\cm0\gcc\libblusdk.a(calib_task.o)
                                                  C:\Senior-Design\Cymote\Cymote2\Cymote2\src\ASF\thirdparty\wireless\ble_smart_sdk\lib\cm0\gcc\libblusdk.a(gap.o)
char_uuid                                         C:\Senior-Design\Cymote\Cymote2\Cymote2\src\ASF\thirdparty\wireless\ble_smart_sdk\lib\cm0\gcc\libblusdk.a(gatt_server.o)
characteristic_attribute_descriptions_init        src/BLE.o
characteristic_description_init                   src/BLE.o
characteristic_uuid_init                          src/BLE.o
check_ConnData_emptyEntry                         C:\Senior-Design\Cymote\Cymote2\Cymote2\src\ASF\thirdparty\wireless\ble_smart_sdk\lib\cm0\gcc\libblusdk.a(gapc_task.o)
                                                  C:\Senior-Design\Cymote\Cymote2\Cymote2\src\ASF\thirdparty\wireless\ble_smart_sdk\lib\cm0\gcc\libblusdk.a(gapm_task.o)
                                                  C:\Senior-Design\Cymote\Cymote2\Cymote2\src\ASF\thirdparty\wireless\ble_smart_sdk\lib\cm0\gcc\libblusdk.a(gap.o)
check_ConnData_idx_role                           C:\Senior-Design\Cymote\Cymote2\Cymote2\src\ASF\thirdparty\wireless\ble_smart_sdk\lib\cm0\gcc\libblusdk.a(gapc_task.o)
                                                  C:\Senior-Design\Cymote\Cymote2\Cymote2\src\ASF\thirdparty\wireless\ble_smart_sdk\lib\cm0\gcc\libblusdk.a(gapm_task.o)
                                                  C:\Senior-Design\Cymote\Cymote2\Cymote2\src\ASF\thirdparty\wireless\ble_smart_sdk\lib\cm0\gcc\libblusdk.a(security.o)
cleanup_glue                                      c:/program files (x86)/atmel/studio/7.0/toolchain/arm/arm-gnu-toolchain/bin/../lib/gcc/arm-none-eabi/5.3.1/../../../../arm-none-eabi/lib/armv6-m\libc_nano.a(lib_a-reent.o)
client_conf_uuid                                  C:\Senior-Design\Cymote\Cymote2\Cymote2\src\ASF\thirdparty\wireless\ble_smart_sdk\lib\cm0\gcc\libblusdk.a(gatt_server.o)
config_uart                                       src/ASF/thirdparty/wireless/ble_smart_sdk/services/uart/console_serial.o
configure_adc_3                                   src/ADC_GPIO.o
                                                  src/main_sam_b.o
configure_adc_4                                   src/ADC_GPIO.o
                                                  src/main_sam_b.o
configure_console                                 src/LSM9DS1.o
configure_console_0                               src/LSM9DS0.o
configure_gpio                                    src/LSM9DS1.o
                                                  src/main_sam_b.o
configure_gpio_0                                  src/LSM9DS0.o
configure_gpio_pins                               src/ADC_GPIO.o
                                                  src/main_sam_b.o
connected_state_info                              src/ASF/thirdparty/wireless/ble_smart_sdk/ble_services/ble_mgr/ble_manager.o
console_instance                                  src/main_sam_b.o
cpu_irq_enter_critical                            src/ASF/common/utils/interrupt/interrupt_sam_nvic.o
cpu_irq_leave_critical                            src/ASF/common/utils/interrupt/interrupt_sam_nvic.o
cymote_connection_handle                          src/main_sam_b.o
cymote_gatt_service_handle                        src/main_sam_b.o
cymote_service_define                             src/BLE.o
cymote_service_handler                            src/main_sam_b.o
cymote_service_init                               src/BLE.o
                                                  src/main_sam_b.o
db_init                                           C:\Senior-Design\Cymote\Cymote2\Cymote2\src\ASF\thirdparty\wireless\ble_smart_sdk\lib\cm0\gcc\libblusdk.a(gatt_server.o)
                                                  C:\Senior-Design\Cymote\Cymote2\Cymote2\src\ASF\thirdparty\wireless\ble_smart_sdk\lib\cm0\gcc\libblusdk.a(gap.o)
dbg_le_set_bd_addr_req_handler                    C:\Senior-Design\Cymote\Cymote2\Cymote2\src\ASF\thirdparty\wireless\ble_smart_sdk\lib\cm0\gcc\libblusdk.a(dbg_task.o)
                                                  C:\Senior-Design\Cymote\Cymote2\Cymote2\src\ASF\thirdparty\wireless\ble_smart_sdk\lib\cm0\gcc\libblusdk.a(gap.o)
dbg_rd_mem_req_handler                            C:\Senior-Design\Cymote\Cymote2\Cymote2\src\ASF\thirdparty\wireless\ble_smart_sdk\lib\cm0\gcc\libblusdk.a(dbg_task.o)
                                                  C:\Senior-Design\Cymote\Cymote2\Cymote2\src\ASF\thirdparty\wireless\ble_smart_sdk\lib\cm0\gcc\libblusdk.a(gap.o)
dbg_wr_mem_req_handler                            C:\Senior-Design\Cymote\Cymote2\Cymote2\src\ASF\thirdparty\wireless\ble_smart_sdk\lib\cm0\gcc\libblusdk.a(dbg_task.o)
                                                  C:\Senior-Design\Cymote\Cymote2\Cymote2\src\ASF\thirdparty\wireless\ble_smart_sdk\lib\cm0\gcc\libblusdk.a(gap.o)
default_gpio_pin_set                              src/main_sam_b.o
default_samb11_clock_init                         src/ASF/thirdparty/wireless/ble_smart_sdk/src/platform_drv.o
device                                            C:\Senior-Design\Cymote\Cymote2\Cymote2\src\ASF\thirdparty\wireless\ble_smart_sdk\lib\cm0\gcc\libblusdk.a(gap.o)
                                                  C:\Senior-Design\Cymote\Cymote2\Cymote2\src\ASF\thirdparty\wireless\ble_smart_sdk\lib\cm0\gcc\libblusdk.a(gapm_task.o)
                                                  C:\Senior-Design\Cymote\Cymote2\Cymote2\src\ASF\thirdparty\wireless\ble_smart_sdk\lib\cm0\gcc\libblusdk.a(gapc_task.o)
                                                  C:\Senior-Design\Cymote\Cymote2\Cymote2\src\ASF\thirdparty\wireless\ble_smart_sdk\lib\cm0\gcc\libblusdk.a(security.o)
device_information_advertise                      src/BLE.o
                                                  src/main_sam_b.o
dualtimer_clear_interrupt_status                  src/ASF/sam0/drivers/dualtimer/dualtimer.o
dualtimer_disable                                 src/ASF/sam0/drivers/dualtimer/dualtimer.o
                                                  src/ASF/thirdparty/wireless/ble_smart_sdk/services/dualtimer/timer_hw.o
dualtimer_enable                                  src/ASF/sam0/drivers/dualtimer/dualtimer.o
                                                  src/ASF/thirdparty/wireless/ble_smart_sdk/services/dualtimer/timer_hw.o
dualtimer_get_config_defaults                     src/ASF/sam0/drivers/dualtimer/dualtimer.o
                                                  src/ASF/thirdparty/wireless/ble_smart_sdk/services/dualtimer/timer_hw.o
dualtimer_get_interrupt_status                    src/ASF/sam0/drivers/dualtimer/dualtimer.o
dualtimer_get_status                              src/ASF/sam0/drivers/dualtimer/dualtimer.o
dualtimer_get_value                               src/ASF/sam0/drivers/dualtimer/dualtimer.o
dualtimer_init                                    src/ASF/sam0/drivers/dualtimer/dualtimer.o
                                                  src/ASF/thirdparty/wireless/ble_smart_sdk/services/dualtimer/timer_hw.o
dualtimer_register_callback                       src/ASF/sam0/drivers/dualtimer/dualtimer.o
                                                  src/ASF/thirdparty/wireless/ble_smart_sdk/services/dualtimer/timer_hw.o
dualtimer_set_counter                             src/ASF/sam0/drivers/dualtimer/dualtimer.o
                                                  src/ASF/thirdparty/wireless/ble_smart_sdk/services/dualtimer/timer_hw.o
dualtimer_unregister_callback                     src/ASF/sam0/drivers/dualtimer/dualtimer.o
dummy_buffer                                      C:\Senior-Design\Cymote\Cymote2\Cymote2\src\ASF\thirdparty\wireless\ble_smart_sdk\lib\cm0\gcc\libblusdk.a(interface.o)
                                                  C:\Senior-Design\Cymote\Cymote2\Cymote2\src\ASF\thirdparty\wireless\ble_smart_sdk\lib\cm0\gcc\libblusdk.a(gatt_server.o)
dummy_buffer_buff                                 C:\Senior-Design\Cymote\Cymote2\Cymote2\src\ASF\thirdparty\wireless\ble_smart_sdk\lib\cm0\gcc\libblusdk.a(interface.o)
errno                                             c:/program files (x86)/atmel/studio/7.0/toolchain/arm/arm-gnu-toolchain/bin/../lib/gcc/arm-none-eabi/5.3.1/../../../../arm-none-eabi/lib/armv6-m\libc_nano.a(lib_a-reent.o)
                                                  c:/program files (x86)/atmel/studio/7.0/toolchain/arm/arm-gnu-toolchain/bin/../lib/gcc/arm-none-eabi/5.3.1/../../../../arm-none-eabi/lib/armv6-m\libc_nano.a(lib_a-isattyr.o)
                                                  c:/program files (x86)/atmel/studio/7.0/toolchain/arm/arm-gnu-toolchain/bin/../lib/gcc/arm-none-eabi/5.3.1/../../../../arm-none-eabi/lib/armv6-m\libc_nano.a(lib_a-fstatr.o)
                                                  c:/program files (x86)/atmel/studio/7.0/toolchain/arm/arm-gnu-toolchain/bin/../lib/gcc/arm-none-eabi/5.3.1/../../../../arm-none-eabi/lib/armv6-m\libc_nano.a(lib_a-readr.o)
                                                  c:/program files (x86)/atmel/studio/7.0/toolchain/arm/arm-gnu-toolchain/bin/../lib/gcc/arm-none-eabi/5.3.1/../../../../arm-none-eabi/lib/armv6-m\libc_nano.a(lib_a-lseekr.o)
                                                  c:/program files (x86)/atmel/studio/7.0/toolchain/arm/arm-gnu-toolchain/bin/../lib/gcc/arm-none-eabi/5.3.1/../../../../arm-none-eabi/lib/armv6-m\libc_nano.a(lib_a-closer.o)
                                                  c:/program files (x86)/atmel/studio/7.0/toolchain/arm/arm-gnu-toolchain/bin/../lib/gcc/arm-none-eabi/5.3.1/../../../../arm-none-eabi/lib/armv6-m\libc_nano.a(lib_a-writer.o)
                                                  c:/program files (x86)/atmel/studio/7.0/toolchain/arm/arm-gnu-toolchain/bin/../lib/gcc/arm-none-eabi/5.3.1/../../../../arm-none-eabi/lib/armv6-m\libc_nano.a(lib_a-sbrkr.o)
event                                             src/ASF/thirdparty/wireless/ble_smart_sdk/ble_services/ble_mgr/ble_manager.o
event_param_buff                                  C:\Senior-Design\Cymote\Cymote2\Cymote2\src\ASF\thirdparty\wireless\ble_smart_sdk\lib\cm0\gcc\libblusdk.a(interface.o)
event_param_buff_index                            C:\Senior-Design\Cymote\Cymote2\Cymote2\src\ASF\thirdparty\wireless\ble_smart_sdk\lib\cm0\gcc\libblusdk.a(interface.o)
event_param_buff_length                           C:\Senior-Design\Cymote\Cymote2\Cymote2\src\ASF\thirdparty\wireless\ble_smart_sdk\lib\cm0\gcc\libblusdk.a(interface.o)
event_params_memory                               src/ASF/thirdparty/wireless/ble_smart_sdk/ble_services/ble_mgr/ble_manager.o
event_pool_memory                                 src/ASF/thirdparty/wireless/ble_smart_sdk/ble_services/ble_mgr/ble_manager.o
exit                                              c:/program files (x86)/atmel/studio/7.0/toolchain/arm/arm-gnu-toolchain/bin/../lib/gcc/arm-none-eabi/5.3.1/../../../../arm-none-eabi/lib/armv6-m\libc_nano.a(lib_a-exit.o)
                                                  c:/program files (x86)/atmel/studio/7.0/toolchain/arm/arm-gnu-toolchain/bin/../lib/gcc/arm-none-eabi/5.3.1/../../../../arm-none-eabi/lib/armv6-m/crt0.o
extended_props_uuid                               C:\Senior-Design\Cymote\Cymote2\Cymote2\src\ASF\thirdparty\wireless\ble_smart_sdk\lib\cm0\gcc\libblusdk.a(gatt_server.o)
fflush                                            c:/program files (x86)/atmel/studio/7.0/toolchain/arm/arm-gnu-toolchain/bin/../lib/gcc/arm-none-eabi/5.3.1/../../../../arm-none-eabi/lib/armv6-m\libc_nano.a(lib_a-fflush.o)
                                                  src/BLE.o
free                                              c:/program files (x86)/atmel/studio/7.0/toolchain/arm/arm-gnu-toolchain/bin/../lib/gcc/arm-none-eabi/5.3.1/../../../../arm-none-eabi/lib/armv6-m\libc_nano.a(lib_a-malloc.o)
g_interrupt_enabled                               src/ASF/common/utils/interrupt/interrupt_sam_nvic.o
g_read_byte                                       src/LSM9DS0.o
g_read_bytes                                      src/LSM9DS0.o
g_transfer                                        src/LSM9DS0.o
g_write                                           src/LSM9DS0.o
gap_dev_connect                                   src/ASF/thirdparty/wireless/ble_smart_sdk/ble_services/ble_mgr/ble_manager.o
gap_dev_scan                                      src/ASF/thirdparty/wireless/ble_smart_sdk/ble_services/ble_mgr/ble_manager.o
gapc_bond_cfm_handler_key_exch                    C:\Senior-Design\Cymote\Cymote2\Cymote2\src\ASF\thirdparty\wireless\ble_smart_sdk\lib\cm0\gcc\libblusdk.a(gapc_task.o)
                                                  C:\Senior-Design\Cymote\Cymote2\Cymote2\src\ASF\thirdparty\wireless\ble_smart_sdk\lib\cm0\gcc\libblusdk.a(security.o)
gapc_bond_cfm_handler_pair_resp                   C:\Senior-Design\Cymote\Cymote2\Cymote2\src\ASF\thirdparty\wireless\ble_smart_sdk\lib\cm0\gcc\libblusdk.a(gapc_task.o)
                                                  C:\Senior-Design\Cymote\Cymote2\Cymote2\src\ASF\thirdparty\wireless\ble_smart_sdk\lib\cm0\gcc\libblusdk.a(security.o)
gapc_bond_cmd_handler                             C:\Senior-Design\Cymote\Cymote2\Cymote2\src\ASF\thirdparty\wireless\ble_smart_sdk\lib\cm0\gcc\libblusdk.a(gapc_task.o)
                                                  C:\Senior-Design\Cymote\Cymote2\Cymote2\src\ASF\thirdparty\wireless\ble_smart_sdk\lib\cm0\gcc\libblusdk.a(security.o)
gapc_bond_ind                                     C:\Senior-Design\Cymote\Cymote2\Cymote2\src\ASF\thirdparty\wireless\ble_smart_sdk\lib\cm0\gcc\libblusdk.a(gapc_task.o)
                                                  C:\Senior-Design\Cymote\Cymote2\Cymote2\src\ASF\thirdparty\wireless\ble_smart_sdk\lib\cm0\gcc\libblusdk.a(event.o)
gapc_bond_req_ind                                 C:\Senior-Design\Cymote\Cymote2\Cymote2\src\ASF\thirdparty\wireless\ble_smart_sdk\lib\cm0\gcc\libblusdk.a(gapc_task.o)
                                                  C:\Senior-Design\Cymote\Cymote2\Cymote2\src\ASF\thirdparty\wireless\ble_smart_sdk\lib\cm0\gcc\libblusdk.a(event.o)
gapc_cmp_evt                                      C:\Senior-Design\Cymote\Cymote2\Cymote2\src\ASF\thirdparty\wireless\ble_smart_sdk\lib\cm0\gcc\libblusdk.a(gapc_task.o)
                                                  C:\Senior-Design\Cymote\Cymote2\Cymote2\src\ASF\thirdparty\wireless\ble_smart_sdk\lib\cm0\gcc\libblusdk.a(event.o)
gapc_con_channel_map_ind_handler                  C:\Senior-Design\Cymote\Cymote2\Cymote2\src\ASF\thirdparty\wireless\ble_smart_sdk\lib\cm0\gcc\libblusdk.a(gapc_task.o)
                                                  C:\Senior-Design\Cymote\Cymote2\Cymote2\src\ASF\thirdparty\wireless\ble_smart_sdk\lib\cm0\gcc\libblusdk.a(event.o)
gapc_con_req_ind                                  C:\Senior-Design\Cymote\Cymote2\Cymote2\src\ASF\thirdparty\wireless\ble_smart_sdk\lib\cm0\gcc\libblusdk.a(gapc_task.o)
                                                  C:\Senior-Design\Cymote\Cymote2\Cymote2\src\ASF\thirdparty\wireless\ble_smart_sdk\lib\cm0\gcc\libblusdk.a(event.o)
gapc_connection_cfm_handler                       C:\Senior-Design\Cymote\Cymote2\Cymote2\src\ASF\thirdparty\wireless\ble_smart_sdk\lib\cm0\gcc\libblusdk.a(gapc_task.o)
                                                  C:\Senior-Design\Cymote\Cymote2\Cymote2\src\ASF\thirdparty\wireless\ble_smart_sdk\lib\cm0\gcc\libblusdk.a(gap.o)
gapc_dev_info_req_ind_handler                     C:\Senior-Design\Cymote\Cymote2\Cymote2\src\ASF\thirdparty\wireless\ble_smart_sdk\lib\cm0\gcc\libblusdk.a(gapc_task.o)
                                                  C:\Senior-Design\Cymote\Cymote2\Cymote2\src\ASF\thirdparty\wireless\ble_smart_sdk\lib\cm0\gcc\libblusdk.a(event.o)
gapc_disconnect_cmd_handler                       C:\Senior-Design\Cymote\Cymote2\Cymote2\src\ASF\thirdparty\wireless\ble_smart_sdk\lib\cm0\gcc\libblusdk.a(gapc_task.o)
                                                  C:\Senior-Design\Cymote\Cymote2\Cymote2\src\ASF\thirdparty\wireless\ble_smart_sdk\lib\cm0\gcc\libblusdk.a(gap.o)
gapc_disconnect_ind                               C:\Senior-Design\Cymote\Cymote2\Cymote2\src\ASF\thirdparty\wireless\ble_smart_sdk\lib\cm0\gcc\libblusdk.a(gapc_task.o)
                                                  C:\Senior-Design\Cymote\Cymote2\Cymote2\src\ASF\thirdparty\wireless\ble_smart_sdk\lib\cm0\gcc\libblusdk.a(event.o)
gapc_encrypt_cfm_handler                          C:\Senior-Design\Cymote\Cymote2\Cymote2\src\ASF\thirdparty\wireless\ble_smart_sdk\lib\cm0\gcc\libblusdk.a(gapc_task.o)
                                                  C:\Senior-Design\Cymote\Cymote2\Cymote2\src\ASF\thirdparty\wireless\ble_smart_sdk\lib\cm0\gcc\libblusdk.a(security.o)
gapc_encrypt_cmd_handler                          C:\Senior-Design\Cymote\Cymote2\Cymote2\src\ASF\thirdparty\wireless\ble_smart_sdk\lib\cm0\gcc\libblusdk.a(gapc_task.o)
                                                  C:\Senior-Design\Cymote\Cymote2\Cymote2\src\ASF\thirdparty\wireless\ble_smart_sdk\lib\cm0\gcc\libblusdk.a(security.o)
gapc_encrypt_ind                                  C:\Senior-Design\Cymote\Cymote2\Cymote2\src\ASF\thirdparty\wireless\ble_smart_sdk\lib\cm0\gcc\libblusdk.a(gapc_task.o)
                                                  C:\Senior-Design\Cymote\Cymote2\Cymote2\src\ASF\thirdparty\wireless\ble_smart_sdk\lib\cm0\gcc\libblusdk.a(event.o)
gapc_encrypt_req_ind                              C:\Senior-Design\Cymote\Cymote2\Cymote2\src\ASF\thirdparty\wireless\ble_smart_sdk\lib\cm0\gcc\libblusdk.a(gapc_task.o)
                                                  C:\Senior-Design\Cymote\Cymote2\Cymote2\src\ASF\thirdparty\wireless\ble_smart_sdk\lib\cm0\gcc\libblusdk.a(event.o)
gapc_get_info_cmd_handler                         C:\Senior-Design\Cymote\Cymote2\Cymote2\src\ASF\thirdparty\wireless\ble_smart_sdk\lib\cm0\gcc\libblusdk.a(gapc_task.o)
                                                  C:\Senior-Design\Cymote\Cymote2\Cymote2\src\ASF\thirdparty\wireless\ble_smart_sdk\lib\cm0\gcc\libblusdk.a(gap.o)
gapc_lecb_add_cmd_handler                         C:\Senior-Design\Cymote\Cymote2\Cymote2\src\ASF\thirdparty\wireless\ble_smart_sdk\lib\cm0\gcc\libblusdk.a(gapc_task.o)
gapc_lecb_add_credit_resp_handler                 C:\Senior-Design\Cymote\Cymote2\Cymote2\src\ASF\thirdparty\wireless\ble_smart_sdk\lib\cm0\gcc\libblusdk.a(gapc_task.o)
                                                  C:\Senior-Design\Cymote\Cymote2\Cymote2\src\ASF\thirdparty\wireless\ble_smart_sdk\lib\cm0\gcc\libblusdk.a(event.o)
gapc_lecb_connect_cfm_handler                     C:\Senior-Design\Cymote\Cymote2\Cymote2\src\ASF\thirdparty\wireless\ble_smart_sdk\lib\cm0\gcc\libblusdk.a(gapc_task.o)
gapc_lecb_connect_cmd_handler                     C:\Senior-Design\Cymote\Cymote2\Cymote2\src\ASF\thirdparty\wireless\ble_smart_sdk\lib\cm0\gcc\libblusdk.a(gapc_task.o)
gapc_lecb_connect_req_ind                         C:\Senior-Design\Cymote\Cymote2\Cymote2\src\ASF\thirdparty\wireless\ble_smart_sdk\lib\cm0\gcc\libblusdk.a(gapc_task.o)
                                                  C:\Senior-Design\Cymote\Cymote2\Cymote2\src\ASF\thirdparty\wireless\ble_smart_sdk\lib\cm0\gcc\libblusdk.a(event.o)
gapc_lecb_connected                               C:\Senior-Design\Cymote\Cymote2\Cymote2\src\ASF\thirdparty\wireless\ble_smart_sdk\lib\cm0\gcc\libblusdk.a(gapc_task.o)
                                                  C:\Senior-Design\Cymote\Cymote2\Cymote2\src\ASF\thirdparty\wireless\ble_smart_sdk\lib\cm0\gcc\libblusdk.a(event.o)
gapc_lecb_create_handler                          C:\Senior-Design\Cymote\Cymote2\Cymote2\src\ASF\thirdparty\wireless\ble_smart_sdk\lib\cm0\gcc\libblusdk.a(gapc_task.o)
gapc_lecb_destroy_handler                         C:\Senior-Design\Cymote\Cymote2\Cymote2\src\ASF\thirdparty\wireless\ble_smart_sdk\lib\cm0\gcc\libblusdk.a(gapc_task.o)
gapc_lecb_disconnect_cmd_handler                  C:\Senior-Design\Cymote\Cymote2\Cymote2\src\ASF\thirdparty\wireless\ble_smart_sdk\lib\cm0\gcc\libblusdk.a(gapc_task.o)
gapc_lecb_disconnected                            C:\Senior-Design\Cymote\Cymote2\Cymote2\src\ASF\thirdparty\wireless\ble_smart_sdk\lib\cm0\gcc\libblusdk.a(gapc_task.o)
                                                  C:\Senior-Design\Cymote\Cymote2\Cymote2\src\ASF\thirdparty\wireless\ble_smart_sdk\lib\cm0\gcc\libblusdk.a(event.o)
gapc_param_update_cfm_handler                     C:\Senior-Design\Cymote\Cymote2\Cymote2\src\ASF\thirdparty\wireless\ble_smart_sdk\lib\cm0\gcc\libblusdk.a(gapc_task.o)
                                                  C:\Senior-Design\Cymote\Cymote2\Cymote2\src\ASF\thirdparty\wireless\ble_smart_sdk\lib\cm0\gcc\libblusdk.a(gap.o)
gapc_param_update_cmd_handler                     C:\Senior-Design\Cymote\Cymote2\Cymote2\src\ASF\thirdparty\wireless\ble_smart_sdk\lib\cm0\gcc\libblusdk.a(gapc_task.o)
                                                  C:\Senior-Design\Cymote\Cymote2\Cymote2\src\ASF\thirdparty\wireless\ble_smart_sdk\lib\cm0\gcc\libblusdk.a(gap.o)
gapc_param_updated_ind                            C:\Senior-Design\Cymote\Cymote2\Cymote2\src\ASF\thirdparty\wireless\ble_smart_sdk\lib\cm0\gcc\libblusdk.a(gapc_task.o)
                                                  C:\Senior-Design\Cymote\Cymote2\Cymote2\src\ASF\thirdparty\wireless\ble_smart_sdk\lib\cm0\gcc\libblusdk.a(event.o)
gapc_param_updated_req_ind                        C:\Senior-Design\Cymote\Cymote2\Cymote2\src\ASF\thirdparty\wireless\ble_smart_sdk\lib\cm0\gcc\libblusdk.a(gapc_task.o)
                                                  C:\Senior-Design\Cymote\Cymote2\Cymote2\src\ASF\thirdparty\wireless\ble_smart_sdk\lib\cm0\gcc\libblusdk.a(event.o)
gapc_peer_att_info_ind_handler                    C:\Senior-Design\Cymote\Cymote2\Cymote2\src\ASF\thirdparty\wireless\ble_smart_sdk\lib\cm0\gcc\libblusdk.a(gapc_task.o)
                                                  C:\Senior-Design\Cymote\Cymote2\Cymote2\src\ASF\thirdparty\wireless\ble_smart_sdk\lib\cm0\gcc\libblusdk.a(event.o)
gapc_sec_req_ind                                  C:\Senior-Design\Cymote\Cymote2\Cymote2\src\ASF\thirdparty\wireless\ble_smart_sdk\lib\cm0\gcc\libblusdk.a(gapc_task.o)
                                                  C:\Senior-Design\Cymote\Cymote2\Cymote2\src\ASF\thirdparty\wireless\ble_smart_sdk\lib\cm0\gcc\libblusdk.a(event.o)
gapc_security_cmd_handler                         C:\Senior-Design\Cymote\Cymote2\Cymote2\src\ASF\thirdparty\wireless\ble_smart_sdk\lib\cm0\gcc\libblusdk.a(gapc_task.o)
                                                  C:\Senior-Design\Cymote\Cymote2\Cymote2\src\ASF\thirdparty\wireless\ble_smart_sdk\lib\cm0\gcc\libblusdk.a(security.o)
gapc_sign_counter_ind_handler                     C:\Senior-Design\Cymote\Cymote2\Cymote2\src\ASF\thirdparty\wireless\ble_smart_sdk\lib\cm0\gcc\libblusdk.a(gapc_task.o)
                                                  C:\Senior-Design\Cymote\Cymote2\Cymote2\src\ASF\thirdparty\wireless\ble_smart_sdk\lib\cm0\gcc\libblusdk.a(event.o)
gapm_addr_solved_ind_handler                      C:\Senior-Design\Cymote\Cymote2\Cymote2\src\ASF\thirdparty\wireless\ble_smart_sdk\lib\cm0\gcc\libblusdk.a(gapm_task.o)
                                                  C:\Senior-Design\Cymote\Cymote2\Cymote2\src\ASF\thirdparty\wireless\ble_smart_sdk\lib\cm0\gcc\libblusdk.a(event.o)
gapm_adv_report_evt_handler                       C:\Senior-Design\Cymote\Cymote2\Cymote2\src\ASF\thirdparty\wireless\ble_smart_sdk\lib\cm0\gcc\libblusdk.a(gapm_task.o)
                                                  C:\Senior-Design\Cymote\Cymote2\Cymote2\src\ASF\thirdparty\wireless\ble_smart_sdk\lib\cm0\gcc\libblusdk.a(event.o)
gapm_cancel_cmd_handler                           C:\Senior-Design\Cymote\Cymote2\Cymote2\src\ASF\thirdparty\wireless\ble_smart_sdk\lib\cm0\gcc\libblusdk.a(gapm_task.o)
                                                  C:\Senior-Design\Cymote\Cymote2\Cymote2\src\ASF\thirdparty\wireless\ble_smart_sdk\lib\cm0\gcc\libblusdk.a(gap.o)
gapm_cmp_evt                                      C:\Senior-Design\Cymote\Cymote2\Cymote2\src\ASF\thirdparty\wireless\ble_smart_sdk\lib\cm0\gcc\libblusdk.a(gapm_task.o)
                                                  C:\Senior-Design\Cymote\Cymote2\Cymote2\src\ASF\thirdparty\wireless\ble_smart_sdk\lib\cm0\gcc\libblusdk.a(event.o)
gapm_dev_bdaddr_ind_handler                       C:\Senior-Design\Cymote\Cymote2\Cymote2\src\ASF\thirdparty\wireless\ble_smart_sdk\lib\cm0\gcc\libblusdk.a(gapm_task.o)
                                                  C:\Senior-Design\Cymote\Cymote2\Cymote2\src\ASF\thirdparty\wireless\ble_smart_sdk\lib\cm0\gcc\libblusdk.a(event.o)
gapm_get_dev_config_cmd_handler                   C:\Senior-Design\Cymote\Cymote2\Cymote2\src\ASF\thirdparty\wireless\ble_smart_sdk\lib\cm0\gcc\libblusdk.a(gapm_task.o)
                                                  C:\Senior-Design\Cymote\Cymote2\Cymote2\src\ASF\thirdparty\wireless\ble_smart_sdk\lib\cm0\gcc\libblusdk.a(gap.o)
gapm_profile_added_ind_handler                    C:\Senior-Design\Cymote\Cymote2\Cymote2\src\ASF\thirdparty\wireless\ble_smart_sdk\lib\cm0\gcc\libblusdk.a(gapm_task.o)
                                                  C:\Senior-Design\Cymote\Cymote2\Cymote2\src\ASF\thirdparty\wireless\ble_smart_sdk\lib\cm0\gcc\libblusdk.a(event.o)
gapm_profile_task_add_cmd_handler                 C:\Senior-Design\Cymote\Cymote2\Cymote2\src\ASF\thirdparty\wireless\ble_smart_sdk\lib\cm0\gcc\libblusdk.a(gapm_task.o)
                                                  C:\Senior-Design\Cymote\Cymote2\Cymote2\src\ASF\thirdparty\wireless\ble_smart_sdk\lib\cm0\gcc\libblusdk.a(htpt_task.o)
gapm_reset_req_handler                            C:\Senior-Design\Cymote\Cymote2\Cymote2\src\ASF\thirdparty\wireless\ble_smart_sdk\lib\cm0\gcc\libblusdk.a(gapm_task.o)
                                                  C:\Senior-Design\Cymote\Cymote2\Cymote2\src\ASF\thirdparty\wireless\ble_smart_sdk\lib\cm0\gcc\libblusdk.a(gap.o)
gapm_resolv_addr_cmd_handler                      C:\Senior-Design\Cymote\Cymote2\Cymote2\src\ASF\thirdparty\wireless\ble_smart_sdk\lib\cm0\gcc\libblusdk.a(gapm_task.o)
                                                  C:\Senior-Design\Cymote\Cymote2\Cymote2\src\ASF\thirdparty\wireless\ble_smart_sdk\lib\cm0\gcc\libblusdk.a(gap.o)
gapm_set_channel_map_cmd_handler                  C:\Senior-Design\Cymote\Cymote2\Cymote2\src\ASF\thirdparty\wireless\ble_smart_sdk\lib\cm0\gcc\libblusdk.a(gapm_task.o)
                                                  C:\Senior-Design\Cymote\Cymote2\Cymote2\src\ASF\thirdparty\wireless\ble_smart_sdk\lib\cm0\gcc\libblusdk.a(gap.o)
gapm_set_dev_config_cmd_handler                   C:\Senior-Design\Cymote\Cymote2\Cymote2\src\ASF\thirdparty\wireless\ble_smart_sdk\lib\cm0\gcc\libblusdk.a(gapm_task.o)
                                                  C:\Senior-Design\Cymote\Cymote2\Cymote2\src\ASF\thirdparty\wireless\ble_smart_sdk\lib\cm0\gcc\libblusdk.a(gap.o)
gapm_start_adv_cmd_handler                        C:\Senior-Design\Cymote\Cymote2\Cymote2\src\ASF\thirdparty\wireless\ble_smart_sdk\lib\cm0\gcc\libblusdk.a(gapm_task.o)
                                                  C:\Senior-Design\Cymote\Cymote2\Cymote2\src\ASF\thirdparty\wireless\ble_smart_sdk\lib\cm0\gcc\libblusdk.a(gap.o)
gapm_start_connection_cmd_handler                 C:\Senior-Design\Cymote\Cymote2\Cymote2\src\ASF\thirdparty\wireless\ble_smart_sdk\lib\cm0\gcc\libblusdk.a(gapm_task.o)
                                                  C:\Senior-Design\Cymote\Cymote2\Cymote2\src\ASF\thirdparty\wireless\ble_smart_sdk\lib\cm0\gcc\libblusdk.a(gap.o)
gapm_start_scan_cmd_handler                       C:\Senior-Design\Cymote\Cymote2\Cymote2\src\ASF\thirdparty\wireless\ble_smart_sdk\lib\cm0\gcc\libblusdk.a(gapm_task.o)
                                                  C:\Senior-Design\Cymote\Cymote2\Cymote2\src\ASF\thirdparty\wireless\ble_smart_sdk\lib\cm0\gcc\libblusdk.a(gap.o)
gapm_white_list_mgm_cmd                           C:\Senior-Design\Cymote\Cymote2\Cymote2\src\ASF\thirdparty\wireless\ble_smart_sdk\lib\cm0\gcc\libblusdk.a(gapm_task.o)
                                                  C:\Senior-Design\Cymote\Cymote2\Cymote2\src\ASF\thirdparty\wireless\ble_smart_sdk\lib\cm0\gcc\libblusdk.a(gap.o)
gattc_att_info_cfm                                C:\Senior-Design\Cymote\Cymote2\Cymote2\src\ASF\thirdparty\wireless\ble_smart_sdk\lib\cm0\gcc\libblusdk.a(gattc_task.o)
                                                  C:\Senior-Design\Cymote\Cymote2\Cymote2\src\ASF\thirdparty\wireless\ble_smart_sdk\lib\cm0\gcc\libblusdk.a(gatt_server.o)
gattc_att_info_req_parser                         C:\Senior-Design\Cymote\Cymote2\Cymote2\src\ASF\thirdparty\wireless\ble_smart_sdk\lib\cm0\gcc\libblusdk.a(gattc_task.o)
                                                  C:\Senior-Design\Cymote\Cymote2\Cymote2\src\ASF\thirdparty\wireless\ble_smart_sdk\lib\cm0\gcc\libblusdk.a(gatt_server.o)
gattc_complete_evt_handler                        C:\Senior-Design\Cymote\Cymote2\Cymote2\src\ASF\thirdparty\wireless\ble_smart_sdk\lib\cm0\gcc\libblusdk.a(gattc_task.o)
                                                  C:\Senior-Design\Cymote\Cymote2\Cymote2\src\ASF\thirdparty\wireless\ble_smart_sdk\lib\cm0\gcc\libblusdk.a(event.o)
gattc_disc_char_desc_ind_parser                   C:\Senior-Design\Cymote\Cymote2\Cymote2\src\ASF\thirdparty\wireless\ble_smart_sdk\lib\cm0\gcc\libblusdk.a(gattc_task.o)
                                                  C:\Senior-Design\Cymote\Cymote2\Cymote2\src\ASF\thirdparty\wireless\ble_smart_sdk\lib\cm0\gcc\libblusdk.a(event.o)
gattc_disc_char_ind_parser                        C:\Senior-Design\Cymote\Cymote2\Cymote2\src\ASF\thirdparty\wireless\ble_smart_sdk\lib\cm0\gcc\libblusdk.a(gattc_task.o)
                                                  C:\Senior-Design\Cymote\Cymote2\Cymote2\src\ASF\thirdparty\wireless\ble_smart_sdk\lib\cm0\gcc\libblusdk.a(event.o)
gattc_disc_cmd_handler                            C:\Senior-Design\Cymote\Cymote2\Cymote2\src\ASF\thirdparty\wireless\ble_smart_sdk\lib\cm0\gcc\libblusdk.a(gattc_task.o)
                                                  C:\Senior-Design\Cymote\Cymote2\Cymote2\src\ASF\thirdparty\wireless\ble_smart_sdk\lib\cm0\gcc\libblusdk.a(gatt_client.o)
gattc_disc_svc_incl_ind_parser                    C:\Senior-Design\Cymote\Cymote2\Cymote2\src\ASF\thirdparty\wireless\ble_smart_sdk\lib\cm0\gcc\libblusdk.a(gattc_task.o)
                                                  C:\Senior-Design\Cymote\Cymote2\Cymote2\src\ASF\thirdparty\wireless\ble_smart_sdk\lib\cm0\gcc\libblusdk.a(event.o)
gattc_disc_svc_ind_parser                         C:\Senior-Design\Cymote\Cymote2\Cymote2\src\ASF\thirdparty\wireless\ble_smart_sdk\lib\cm0\gcc\libblusdk.a(gattc_task.o)
                                                  C:\Senior-Design\Cymote\Cymote2\Cymote2\src\ASF\thirdparty\wireless\ble_smart_sdk\lib\cm0\gcc\libblusdk.a(event.o)
gattc_event_cfm_handler                           C:\Senior-Design\Cymote\Cymote2\Cymote2\src\ASF\thirdparty\wireless\ble_smart_sdk\lib\cm0\gcc\libblusdk.a(gattc_task.o)
                                                  C:\Senior-Design\Cymote\Cymote2\Cymote2\src\ASF\thirdparty\wireless\ble_smart_sdk\lib\cm0\gcc\libblusdk.a(event.o)
gattc_event_ind_and_notification_parser           C:\Senior-Design\Cymote\Cymote2\Cymote2\src\ASF\thirdparty\wireless\ble_smart_sdk\lib\cm0\gcc\libblusdk.a(gattc_task.o)
                                                  C:\Senior-Design\Cymote\Cymote2\Cymote2\src\ASF\thirdparty\wireless\ble_smart_sdk\lib\cm0\gcc\libblusdk.a(event.o)
gattc_event_mtu_changed_ind_parser                C:\Senior-Design\Cymote\Cymote2\Cymote2\src\ASF\thirdparty\wireless\ble_smart_sdk\lib\cm0\gcc\libblusdk.a(gattc_task.o)
                                                  C:\Senior-Design\Cymote\Cymote2\Cymote2\src\ASF\thirdparty\wireless\ble_smart_sdk\lib\cm0\gcc\libblusdk.a(event.o)
gattc_mtu_cmd_handler                             C:\Senior-Design\Cymote\Cymote2\Cymote2\src\ASF\thirdparty\wireless\ble_smart_sdk\lib\cm0\gcc\libblusdk.a(gattc_task.o)
                                                  C:\Senior-Design\Cymote\Cymote2\Cymote2\src\ASF\thirdparty\wireless\ble_smart_sdk\lib\cm0\gcc\libblusdk.a(gatt_client.o)
gattc_read_cfm                                    C:\Senior-Design\Cymote\Cymote2\Cymote2\src\ASF\thirdparty\wireless\ble_smart_sdk\lib\cm0\gcc\libblusdk.a(gattc_task.o)
                                                  C:\Senior-Design\Cymote\Cymote2\Cymote2\src\ASF\thirdparty\wireless\ble_smart_sdk\lib\cm0\gcc\libblusdk.a(gatt_server.o)
gattc_read_cmd_handler                            C:\Senior-Design\Cymote\Cymote2\Cymote2\src\ASF\thirdparty\wireless\ble_smart_sdk\lib\cm0\gcc\libblusdk.a(gattc_task.o)
                                                  C:\Senior-Design\Cymote\Cymote2\Cymote2\src\ASF\thirdparty\wireless\ble_smart_sdk\lib\cm0\gcc\libblusdk.a(gatt_client.o)
gattc_read_cmd_handler_by_uuid                    C:\Senior-Design\Cymote\Cymote2\Cymote2\src\ASF\thirdparty\wireless\ble_smart_sdk\lib\cm0\gcc\libblusdk.a(gattc_task.o)
gattc_read_cmd_handler_multible                   C:\Senior-Design\Cymote\Cymote2\Cymote2\src\ASF\thirdparty\wireless\ble_smart_sdk\lib\cm0\gcc\libblusdk.a(gattc_task.o)
gattc_read_cmd_handler_simple_read                C:\Senior-Design\Cymote\Cymote2\Cymote2\src\ASF\thirdparty\wireless\ble_smart_sdk\lib\cm0\gcc\libblusdk.a(gattc_task.o)
gattc_read_ind_parser                             C:\Senior-Design\Cymote\Cymote2\Cymote2\src\ASF\thirdparty\wireless\ble_smart_sdk\lib\cm0\gcc\libblusdk.a(gattc_task.o)
                                                  C:\Senior-Design\Cymote\Cymote2\Cymote2\src\ASF\thirdparty\wireless\ble_smart_sdk\lib\cm0\gcc\libblusdk.a(event.o)
gattc_read_multiple_handler                       C:\Senior-Design\Cymote\Cymote2\Cymote2\src\ASF\thirdparty\wireless\ble_smart_sdk\lib\cm0\gcc\libblusdk.a(gattc_task.o)
                                                  C:\Senior-Design\Cymote\Cymote2\Cymote2\src\ASF\thirdparty\wireless\ble_smart_sdk\lib\cm0\gcc\libblusdk.a(gatt_client.o)
gattc_read_req_ind_parser                         C:\Senior-Design\Cymote\Cymote2\Cymote2\src\ASF\thirdparty\wireless\ble_smart_sdk\lib\cm0\gcc\libblusdk.a(gattc_task.o)
                                                  C:\Senior-Design\Cymote\Cymote2\Cymote2\src\ASF\thirdparty\wireless\ble_smart_sdk\lib\cm0\gcc\libblusdk.a(gatt_server.o)
gattc_reg_to_peer_handler                         C:\Senior-Design\Cymote\Cymote2\Cymote2\src\ASF\thirdparty\wireless\ble_smart_sdk\lib\cm0\gcc\libblusdk.a(gattc_task.o)
gattc_send_evt_cmd_handler                        C:\Senior-Design\Cymote\Cymote2\Cymote2\src\ASF\thirdparty\wireless\ble_smart_sdk\lib\cm0\gcc\libblusdk.a(gattc_task.o)
                                                  C:\Senior-Design\Cymote\Cymote2\Cymote2\src\ASF\thirdparty\wireless\ble_smart_sdk\lib\cm0\gcc\libblusdk.a(gatt_server.o)
gattc_svc_changed_cfg_ind_parser                  C:\Senior-Design\Cymote\Cymote2\Cymote2\src\ASF\thirdparty\wireless\ble_smart_sdk\lib\cm0\gcc\libblusdk.a(gattc_task.o)
                                                  C:\Senior-Design\Cymote\Cymote2\Cymote2\src\ASF\thirdparty\wireless\ble_smart_sdk\lib\cm0\gcc\libblusdk.a(event.o)
gattc_svc_changed_ind_cmd_handler                 C:\Senior-Design\Cymote\Cymote2\Cymote2\src\ASF\thirdparty\wireless\ble_smart_sdk\lib\cm0\gcc\libblusdk.a(gattc_task.o)
                                                  C:\Senior-Design\Cymote\Cymote2\Cymote2\src\ASF\thirdparty\wireless\ble_smart_sdk\lib\cm0\gcc\libblusdk.a(gatt_server.o)
gattc_write_cfm                                   C:\Senior-Design\Cymote\Cymote2\Cymote2\src\ASF\thirdparty\wireless\ble_smart_sdk\lib\cm0\gcc\libblusdk.a(gattc_task.o)
                                                  C:\Senior-Design\Cymote\Cymote2\Cymote2\src\ASF\thirdparty\wireless\ble_smart_sdk\lib\cm0\gcc\libblusdk.a(gatt_server.o)
gattc_write_cmd_handler                           C:\Senior-Design\Cymote\Cymote2\Cymote2\src\ASF\thirdparty\wireless\ble_smart_sdk\lib\cm0\gcc\libblusdk.a(gattc_task.o)
                                                  C:\Senior-Design\Cymote\Cymote2\Cymote2\src\ASF\thirdparty\wireless\ble_smart_sdk\lib\cm0\gcc\libblusdk.a(gatt_client.o)
gattc_write_execute_cmd_handler                   C:\Senior-Design\Cymote\Cymote2\Cymote2\src\ASF\thirdparty\wireless\ble_smart_sdk\lib\cm0\gcc\libblusdk.a(gattc_task.o)
                                                  C:\Senior-Design\Cymote\Cymote2\Cymote2\src\ASF\thirdparty\wireless\ble_smart_sdk\lib\cm0\gcc\libblusdk.a(gatt_client.o)
gattc_write_req_ind_parser                        C:\Senior-Design\Cymote\Cymote2\Cymote2\src\ASF\thirdparty\wireless\ble_smart_sdk\lib\cm0\gcc\libblusdk.a(gattc_task.o)
                                                  C:\Senior-Design\Cymote\Cymote2\Cymote2\src\ASF\thirdparty\wireless\ble_smart_sdk\lib\cm0\gcc\libblusdk.a(gatt_server.o)
gattm_add_attribute_req_handler                   C:\Senior-Design\Cymote\Cymote2\Cymote2\src\ASF\thirdparty\wireless\ble_smart_sdk\lib\cm0\gcc\libblusdk.a(gattm_task.o)
                                                  C:\Senior-Design\Cymote\Cymote2\Cymote2\src\ASF\thirdparty\wireless\ble_smart_sdk\lib\cm0\gcc\libblusdk.a(gatt_server.o)
gattm_add_svc_req_handler                         C:\Senior-Design\Cymote\Cymote2\Cymote2\src\ASF\thirdparty\wireless\ble_smart_sdk\lib\cm0\gcc\libblusdk.a(gattm_task.o)
                                                  C:\Senior-Design\Cymote\Cymote2\Cymote2\src\ASF\thirdparty\wireless\ble_smart_sdk\lib\cm0\gcc\libblusdk.a(gatt_server.o)
gattm_att_get_value_req_handler                   C:\Senior-Design\Cymote\Cymote2\Cymote2\src\ASF\thirdparty\wireless\ble_smart_sdk\lib\cm0\gcc\libblusdk.a(gattm_task.o)
                                                  C:\Senior-Design\Cymote\Cymote2\Cymote2\src\ASF\thirdparty\wireless\ble_smart_sdk\lib\cm0\gcc\libblusdk.a(gatt_server.o)
gattm_att_set_value_req_handler                   C:\Senior-Design\Cymote\Cymote2\Cymote2\src\ASF\thirdparty\wireless\ble_smart_sdk\lib\cm0\gcc\libblusdk.a(gattm_task.o)
                                                  C:\Senior-Design\Cymote\Cymote2\Cymote2\src\ASF\thirdparty\wireless\ble_smart_sdk\lib\cm0\gcc\libblusdk.a(gatt_server.o)
gatts_handle_att_info_req                         C:\Senior-Design\Cymote\Cymote2\Cymote2\src\ASF\thirdparty\wireless\ble_smart_sdk\lib\cm0\gcc\libblusdk.a(gatt_server.o)
                                                  C:\Senior-Design\Cymote\Cymote2\Cymote2\src\ASF\thirdparty\wireless\ble_smart_sdk\lib\cm0\gcc\libblusdk.a(event.o)
gatts_handle_read_req                             C:\Senior-Design\Cymote\Cymote2\Cymote2\src\ASF\thirdparty\wireless\ble_smart_sdk\lib\cm0\gcc\libblusdk.a(gatt_server.o)
                                                  C:\Senior-Design\Cymote\Cymote2\Cymote2\src\ASF\thirdparty\wireless\ble_smart_sdk\lib\cm0\gcc\libblusdk.a(event.o)
gatts_handle_write_req                            C:\Senior-Design\Cymote\Cymote2\Cymote2\src\ASF\thirdparty\wireless\ble_smart_sdk\lib\cm0\gcc\libblusdk.a(gatt_server.o)
                                                  C:\Senior-Design\Cymote\Cymote2\Cymote2\src\ASF\thirdparty\wireless\ble_smart_sdk\lib\cm0\gcc\libblusdk.a(event.o)
get_button_data                                   src/Buttons.o
                                                  src/main_sam_b.o
get_gap_local_addr_type                           C:\Senior-Design\Cymote\Cymote2\Cymote2\src\ASF\thirdparty\wireless\ble_smart_sdk\lib\cm0\gcc\libblusdk.a(gapm_task.o)
                                                  C:\Senior-Design\Cymote\Cymote2\Cymote2\src\ASF\thirdparty\wireless\ble_smart_sdk\lib\cm0\gcc\libblusdk.a(gap.o)
get_raw_accelerometer                             src/LSM9DS1.o
                                                  src/main_sam_b.o
get_raw_accelerometer_0                           src/LSM9DS0.o
get_raw_gyroscope                                 src/LSM9DS1.o
                                                  src/main_sam_b.o
get_raw_magnetometer                              src/LSM9DS1.o
                                                  src/main_sam_b.o
get_raw_magnetometer_0                            src/LSM9DS0.o
getchar_b11                                       src/ASF/thirdparty/wireless/ble_smart_sdk/services/uart/console_serial.o
getchar_b11_timeout                               src/ASF/thirdparty/wireless/ble_smart_sdk/services/uart/console_serial.o
                                                  src/ASF/thirdparty/wireless/ble_smart_sdk/ble_services/ble_mgr/ble_manager.o
gpio0_combined_isr_handler                        src/ASF/thirdparty/wireless/ble_smart_sdk/src/port_from_sdk.o
                                                  src/ASF/thirdparty/wireless/ble_smart_sdk/src/platform_drv.o
gpio1_combined_isr_handler                        src/ASF/thirdparty/wireless/ble_smart_sdk/src/port_from_sdk.o
gpio_disable_callback                             src/ASF/sam0/drivers/gpio/gpio.o
                                                  src/ASF/thirdparty/wireless/ble_smart_sdk/services/gpio/button.o
gpio_enable_callback                              src/ASF/sam0/drivers/gpio/gpio.o
                                                  src/ASF/thirdparty/wireless/ble_smart_sdk/services/gpio/button.o
gpio_get_config_defaults                          src/ASF/sam0/drivers/gpio/gpio.o
                                                  src/main_sam_b.o
                                                  src/LSM9DS1.o
                                                  src/LSM9DS0.o
                                                  src/LED.o
                                                  src/ASF/thirdparty/wireless/ble_smart_sdk/services/gpio/led.o
                                                  src/ASF/thirdparty/wireless/ble_smart_sdk/services/gpio/button.o
                                                  src/ASF/sam0/drivers/pwm/pwm.o
                                                  src/ADC_GPIO.o
gpio_init                                         src/ASF/sam0/drivers/gpio/gpio.o
                                                  src/main_sam_b.o
gpio_pin_get_input_level                          src/ASF/sam0/drivers/gpio/gpio.o
                                                  src/LSM9DS1.o
                                                  src/LSM9DS0.o
                                                  src/Buttons.o
gpio_pin_get_output_level                         src/ASF/sam0/drivers/gpio/gpio.o
gpio_pin_set_config                               src/ASF/sam0/drivers/gpio/gpio.o
                                                  src/main_sam_b.o
                                                  src/LSM9DS1.o
                                                  src/LSM9DS0.o
                                                  src/LED.o
                                                  src/ASF/thirdparty/wireless/ble_smart_sdk/services/gpio/led.o
                                                  src/ASF/thirdparty/wireless/ble_smart_sdk/services/gpio/button.o
                                                  src/ASF/sam0/drivers/pwm/pwm.o
                                                  src/ADC_GPIO.o
gpio_pin_set_output_level                         src/ASF/sam0/drivers/gpio/gpio.o
                                                  src/main_sam_b.o
                                                  src/LSM9DS1.o
                                                  src/LSM9DS0.o
                                                  src/LED.o
gpio_pin_toggle_output_level                      src/ASF/sam0/drivers/gpio/gpio.o
gpio_pinmux_cofiguration                          src/ASF/sam0/drivers/gpio/gpio.o
                                                  src/main_sam_b.o
                                                  src/LSM9DS1.o
                                                  src/LED.o
                                                  src/ASF/sam0/drivers/uart/uart.o
                                                  src/ASF/sam0/drivers/pwm/pwm.o
                                                  src/ADC_GPIO.o
gpio_register_callback                            src/ASF/sam0/drivers/gpio/gpio.o
                                                  src/ASF/thirdparty/wireless/ble_smart_sdk/services/gpio/button.o
gpio_unregister_callback                          src/ASF/sam0/drivers/gpio/gpio.o
gstrConnData                                      C:\Senior-Design\Cymote\Cymote2\Cymote2\src\ASF\thirdparty\wireless\ble_smart_sdk\lib\cm0\gcc\libblusdk.a(gap.o)
                                                  C:\Senior-Design\Cymote\Cymote2\Cymote2\src\ASF\thirdparty\wireless\ble_smart_sdk\lib\cm0\gcc\libblusdk.a(gapm_task.o)
                                                  C:\Senior-Design\Cymote\Cymote2\Cymote2\src\ASF\thirdparty\wireless\ble_smart_sdk\lib\cm0\gcc\libblusdk.a(gapc_task.o)
                                                  C:\Senior-Design\Cymote\Cymote2\Cymote2\src\ASF\thirdparty\wireless\ble_smart_sdk\lib\cm0\gcc\libblusdk.a(security.o)
gu8UserDefinedEvent                               C:\Senior-Design\Cymote\Cymote2\Cymote2\src\ASF\thirdparty\wireless\ble_smart_sdk\lib\cm0\gcc\libblusdk.a(event.o)
gyroscope_data                                    src/main_sam_b.o
handle_ext_wakeup_isr                             src/ASF/thirdparty/wireless/ble_smart_sdk/src/platform_drv.o
                                                  src/ASF/thirdparty/wireless/ble_smart_sdk/src/port_from_sdk.o
hardware_init_hook                                c:/program files (x86)/atmel/studio/7.0/toolchain/arm/arm-gnu-toolchain/bin/../lib/gcc/arm-none-eabi/5.3.1/../../../../arm-none-eabi/lib/armv6-m/crt0.o
htpt_cfg_indntf_ind_handler                       C:\Senior-Design\Cymote\Cymote2\Cymote2\src\ASF\thirdparty\wireless\ble_smart_sdk\lib\cm0\gcc\libblusdk.a(htpt_task.o)
                                                  C:\Senior-Design\Cymote\Cymote2\Cymote2\src\ASF\thirdparty\wireless\ble_smart_sdk\lib\cm0\gcc\libblusdk.a(event.o)
htpt_create_db_req_handler                        C:\Senior-Design\Cymote\Cymote2\Cymote2\src\ASF\thirdparty\wireless\ble_smart_sdk\lib\cm0\gcc\libblusdk.a(htpt_task.o)
htpt_enable_req_handler                           C:\Senior-Design\Cymote\Cymote2\Cymote2\src\ASF\thirdparty\wireless\ble_smart_sdk\lib\cm0\gcc\libblusdk.a(htpt_task.o)
htpt_enable_rsp_handler                           C:\Senior-Design\Cymote\Cymote2\Cymote2\src\ASF\thirdparty\wireless\ble_smart_sdk\lib\cm0\gcc\libblusdk.a(htpt_task.o)
                                                  C:\Senior-Design\Cymote\Cymote2\Cymote2\src\ASF\thirdparty\wireless\ble_smart_sdk\lib\cm0\gcc\libblusdk.a(event.o)
htpt_meas_intv_chg_cfm_handler                    C:\Senior-Design\Cymote\Cymote2\Cymote2\src\ASF\thirdparty\wireless\ble_smart_sdk\lib\cm0\gcc\libblusdk.a(htpt_task.o)
htpt_meas_intv_chg_req_ind_handler                C:\Senior-Design\Cymote\Cymote2\Cymote2\src\ASF\thirdparty\wireless\ble_smart_sdk\lib\cm0\gcc\libblusdk.a(htpt_task.o)
                                                  C:\Senior-Design\Cymote\Cymote2\Cymote2\src\ASF\thirdparty\wireless\ble_smart_sdk\lib\cm0\gcc\libblusdk.a(event.o)
htpt_meas_intv_upd_req_handler                    C:\Senior-Design\Cymote\Cymote2\Cymote2\src\ASF\thirdparty\wireless\ble_smart_sdk\lib\cm0\gcc\libblusdk.a(htpt_task.o)
htpt_meas_intv_upd_rsp_handler                    C:\Senior-Design\Cymote\Cymote2\Cymote2\src\ASF\thirdparty\wireless\ble_smart_sdk\lib\cm0\gcc\libblusdk.a(htpt_task.o)
                                                  C:\Senior-Design\Cymote\Cymote2\Cymote2\src\ASF\thirdparty\wireless\ble_smart_sdk\lib\cm0\gcc\libblusdk.a(event.o)
htpt_temp_send_req_handler                        C:\Senior-Design\Cymote\Cymote2\Cymote2\src\ASF\thirdparty\wireless\ble_smart_sdk\lib\cm0\gcc\libblusdk.a(htpt_task.o)
htpt_temp_send_rsp_handler                        C:\Senior-Design\Cymote\Cymote2\Cymote2\src\ASF\thirdparty\wireless\ble_smart_sdk\lib\cm0\gcc\libblusdk.a(htpt_task.o)
                                                  C:\Senior-Design\Cymote\Cymote2\Cymote2\src\ASF\thirdparty\wireless\ble_smart_sdk\lib\cm0\gcc\libblusdk.a(event.o)
hw_timer_init                                     src/ASF/thirdparty/wireless/ble_smart_sdk/services/dualtimer/timer_hw.o
                                                  src/main_sam_b.o
hw_timer_register_callback                        src/ASF/thirdparty/wireless/ble_smart_sdk/services/dualtimer/timer_hw.o
                                                  src/main_sam_b.o
hw_timer_start                                    src/ASF/thirdparty/wireless/ble_smart_sdk/services/dualtimer/timer_hw.o
                                                  src/main_sam_b.o
hw_timer_stop                                     src/ASF/thirdparty/wireless/ble_smart_sdk/services/dualtimer/timer_hw.o
include_uuid                                      C:\Senior-Design\Cymote\Cymote2\Cymote2\src\ASF\thirdparty\wireless\ble_smart_sdk\lib\cm0\gcc\libblusdk.a(gatt_server.o)
init_accelerometer                                src/LSM9DS1.o
                                                  src/main_sam_b.o
init_accelerometer_0                              src/LSM9DS0.o
init_accelerometer_odr                            src/LSM9DS0.o
init_accelerometer_scale                          src/LSM9DS0.o
init_clock                                        src/ASF/thirdparty/wireless/ble_smart_sdk/src/platform_drv.o
init_gatt_client_module                           C:\Senior-Design\Cymote\Cymote2\Cymote2\src\ASF\thirdparty\wireless\ble_smart_sdk\lib\cm0\gcc\libblusdk.a(gatt_client.o)
                                                  C:\Senior-Design\Cymote\Cymote2\Cymote2\src\ASF\thirdparty\wireless\ble_smart_sdk\lib\cm0\gcc\libblusdk.a(gap.o)
init_gattc_task_module                            C:\Senior-Design\Cymote\Cymote2\Cymote2\src\ASF\thirdparty\wireless\ble_smart_sdk\lib\cm0\gcc\libblusdk.a(gattc_task.o)
                                                  C:\Senior-Design\Cymote\Cymote2\Cymote2\src\ASF\thirdparty\wireless\ble_smart_sdk\lib\cm0\gcc\libblusdk.a(gap.o)
init_gattm_task_module                            C:\Senior-Design\Cymote\Cymote2\Cymote2\src\ASF\thirdparty\wireless\ble_smart_sdk\lib\cm0\gcc\libblusdk.a(gattm_task.o)
init_gyroscope                                    src/LSM9DS1.o
                                                  src/main_sam_b.o
init_gyroscope_0                                  src/LSM9DS0.o
init_gyroscope_odr                                src/LSM9DS0.o
init_gyroscope_scale                              src/LSM9DS0.o
init_l2cc_task_module                             C:\Senior-Design\Cymote\Cymote2\Cymote2\src\ASF\thirdparty\wireless\ble_smart_sdk\lib\cm0\gcc\libblusdk.a(l2cc_task.o)
                                                  C:\Senior-Design\Cymote\Cymote2\Cymote2\src\ASF\thirdparty\wireless\ble_smart_sdk\lib\cm0\gcc\libblusdk.a(gap.o)
init_magnetometer                                 src/LSM9DS1.o
                                                  src/main_sam_b.o
init_magnetometer_0                               src/LSM9DS0.o
init_magnetometer_odr                             src/LSM9DS0.o
init_magnetometer_scale                           src/LSM9DS0.o
init_port_list                                    src/ASF/thirdparty/wireless/ble_smart_sdk/src/platform_drv.o
initi_gatt_server_module                          C:\Senior-Design\Cymote\Cymote2\Cymote2\src\ASF\thirdparty\wireless\ble_smart_sdk\lib\cm0\gcc\libblusdk.a(gatt_server.o)
                                                  C:\Senior-Design\Cymote\Cymote2\Cymote2\src\ASF\thirdparty\wireless\ble_smart_sdk\lib\cm0\gcc\libblusdk.a(gap.o)
interface_init                                    C:\Senior-Design\Cymote\Cymote2\Cymote2\src\ASF\thirdparty\wireless\ble_smart_sdk\lib\cm0\gcc\libblusdk.a(interface.o)
                                                  C:\Senior-Design\Cymote\Cymote2\Cymote2\src\ASF\thirdparty\wireless\ble_smart_sdk\lib\cm0\gcc\libblusdk.a(gap.o)
interface_send                                    C:\Senior-Design\Cymote\Cymote2\Cymote2\src\ASF\thirdparty\wireless\ble_smart_sdk\lib\cm0\gcc\libblusdk.a(interface.o)
                                                  C:\Senior-Design\Cymote\Cymote2\Cymote2\src\ASF\thirdparty\wireless\ble_smart_sdk\lib\cm0\gcc\libblusdk.a(htpt_task.o)
                                                  C:\Senior-Design\Cymote\Cymote2\Cymote2\src\ASF\thirdparty\wireless\ble_smart_sdk\lib\cm0\gcc\libblusdk.a(gattm_task.o)
                                                  C:\Senior-Design\Cymote\Cymote2\Cymote2\src\ASF\thirdparty\wireless\ble_smart_sdk\lib\cm0\gcc\libblusdk.a(gattc_task.o)
                                                  C:\Senior-Design\Cymote\Cymote2\Cymote2\src\ASF\thirdparty\wireless\ble_smart_sdk\lib\cm0\gcc\libblusdk.a(gapm_task.o)
                                                  C:\Senior-Design\Cymote\Cymote2\Cymote2\src\ASF\thirdparty\wireless\ble_smart_sdk\lib\cm0\gcc\libblusdk.a(gapc_task.o)
                                                  C:\Senior-Design\Cymote\Cymote2\Cymote2\src\ASF\thirdparty\wireless\ble_smart_sdk\lib\cm0\gcc\libblusdk.a(dbg_task.o)
                                                  C:\Senior-Design\Cymote\Cymote2\Cymote2\src\ASF\thirdparty\wireless\ble_smart_sdk\lib\cm0\gcc\libblusdk.a(calib_task.o)
                                                  C:\Senior-Design\Cymote\Cymote2\Cymote2\src\ASF\thirdparty\wireless\ble_smart_sdk\lib\cm0\gcc\libblusdk.a(l2cc_task.o)
interface_send_msg                                C:\Senior-Design\Cymote\Cymote2\Cymote2\src\ASF\thirdparty\wireless\ble_smart_sdk\lib\cm0\gcc\libblusdk.a(interface.o)
                                                  C:\Senior-Design\Cymote\Cymote2\Cymote2\src\ASF\thirdparty\wireless\ble_smart_sdk\lib\cm0\gcc\libblusdk.a(htpt_task.o)
                                                  C:\Senior-Design\Cymote\Cymote2\Cymote2\src\ASF\thirdparty\wireless\ble_smart_sdk\lib\cm0\gcc\libblusdk.a(gattm_task.o)
                                                  C:\Senior-Design\Cymote\Cymote2\Cymote2\src\ASF\thirdparty\wireless\ble_smart_sdk\lib\cm0\gcc\libblusdk.a(gattc_task.o)
                                                  C:\Senior-Design\Cymote\Cymote2\Cymote2\src\ASF\thirdparty\wireless\ble_smart_sdk\lib\cm0\gcc\libblusdk.a(gapm_task.o)
                                                  C:\Senior-Design\Cymote\Cymote2\Cymote2\src\ASF\thirdparty\wireless\ble_smart_sdk\lib\cm0\gcc\libblusdk.a(gapc_task.o)
                                                  C:\Senior-Design\Cymote\Cymote2\Cymote2\src\ASF\thirdparty\wireless\ble_smart_sdk\lib\cm0\gcc\libblusdk.a(dbg_task.o)
                                                  C:\Senior-Design\Cymote\Cymote2\Cymote2\src\ASF\thirdparty\wireless\ble_smart_sdk\lib\cm0\gcc\libblusdk.a(calib_task.o)
                                                  C:\Senior-Design\Cymote\Cymote2\Cymote2\src\ASF\thirdparty\wireless\ble_smart_sdk\lib\cm0\gcc\libblusdk.a(l2cc_task.o)
internal_conn_flush                               C:\Senior-Design\Cymote\Cymote2\Cymote2\src\ASF\thirdparty\wireless\ble_smart_sdk\lib\cm0\gcc\libblusdk.a(event.o)
                                                  C:\Senior-Design\Cymote\Cymote2\Cymote2\src\ASF\thirdparty\wireless\ble_smart_sdk\lib\cm0\gcc\libblusdk.a(gap.o)
internal_event_flush                              C:\Senior-Design\Cymote\Cymote2\Cymote2\src\ASF\thirdparty\wireless\ble_smart_sdk\lib\cm0\gcc\libblusdk.a(event.o)
                                                  C:\Senior-Design\Cymote\Cymote2\Cymote2\src\ASF\thirdparty\wireless\ble_smart_sdk\lib\cm0\gcc\libblusdk.a(gap.o)
internal_event_init                               C:\Senior-Design\Cymote\Cymote2\Cymote2\src\ASF\thirdparty\wireless\ble_smart_sdk\lib\cm0\gcc\libblusdk.a(event.o)
                                                  C:\Senior-Design\Cymote\Cymote2\Cymote2\src\ASF\thirdparty\wireless\ble_smart_sdk\lib\cm0\gcc\libblusdk.a(gap.o)
internal_event_post                               C:\Senior-Design\Cymote\Cymote2\Cymote2\src\ASF\thirdparty\wireless\ble_smart_sdk\lib\cm0\gcc\libblusdk.a(event.o)
                                                  C:\Senior-Design\Cymote\Cymote2\Cymote2\src\ASF\thirdparty\wireless\ble_smart_sdk\lib\cm0\gcc\libblusdk.a(interface.o)
iprintf                                           c:/program files (x86)/atmel/studio/7.0/toolchain/arm/arm-gnu-toolchain/bin/../lib/gcc/arm-none-eabi/5.3.1/../../../../arm-none-eabi/lib/armv6-m\libc_nano.a(lib_a-printf.o)
joystick_data                                     src/main_sam_b.o
l2cap_avail_buffers                               C:\Senior-Design\Cymote\Cymote2\Cymote2\src\ASF\thirdparty\wireless\ble_smart_sdk\lib\cm0\gcc\libblusdk.a(l2cc_task.o)
                                                  C:\Senior-Design\Cymote\Cymote2\Cymote2\src\ASF\thirdparty\wireless\ble_smart_sdk\lib\cm0\gcc\libblusdk.a(gap.o)
l2cc_data_received_handler                        C:\Senior-Design\Cymote\Cymote2\Cymote2\src\ASF\thirdparty\wireless\ble_smart_sdk\lib\cm0\gcc\libblusdk.a(l2cc_task.o)
                                                  C:\Senior-Design\Cymote\Cymote2\Cymote2\src\ASF\thirdparty\wireless\ble_smart_sdk\lib\cm0\gcc\libblusdk.a(event.o)
l2cc_data_send_rsp_handler                        C:\Senior-Design\Cymote\Cymote2\Cymote2\src\ASF\thirdparty\wireless\ble_smart_sdk\lib\cm0\gcc\libblusdk.a(l2cc_task.o)
                                                  C:\Senior-Design\Cymote\Cymote2\Cymote2\src\ASF\thirdparty\wireless\ble_smart_sdk\lib\cm0\gcc\libblusdk.a(event.o)
l2cc_pdu_send_req_handler                         C:\Senior-Design\Cymote\Cymote2\Cymote2\src\ASF\thirdparty\wireless\ble_smart_sdk\lib\cm0\gcc\libblusdk.a(l2cc_task.o)
led_init                                          src/ASF/thirdparty/wireless/ble_smart_sdk/services/gpio/led.o
link                                              src/ASF/sam0/utils/syscalls/gcc/syscalls.o
m_read_byte                                       src/LSM9DS1.o
m_read_bytes                                      src/LSM9DS1.o
m_transfer                                        src/LSM9DS1.o
m_write                                           src/LSM9DS1.o
magnetometer_data                                 src/main_sam_b.o
main                                              src/main_sam_b.o
                                                  src/ASF/sam0/utils/cmsis/samb11/source/gcc/startup_samb11.o
                                                  c:/program files (x86)/atmel/studio/7.0/toolchain/arm/arm-gnu-toolchain/bin/../lib/gcc/arm-none-eabi/5.3.1/../../../../arm-none-eabi/lib/armv6-m/crt0.o
malloc                                            c:/program files (x86)/atmel/studio/7.0/toolchain/arm/arm-gnu-toolchain/bin/../lib/gcc/arm-none-eabi/5.3.1/../../../../arm-none-eabi/lib/armv6-m\libc_nano.a(lib_a-malloc.o)
                                                  c:/program files (x86)/atmel/studio/7.0/toolchain/arm/arm-gnu-toolchain/bin/../lib/gcc/arm-none-eabi/5.3.1/../../../../arm-none-eabi/lib/armv6-m\libc_nano.a(lib_a-setvbuf.o)
                                                  c:/program files (x86)/atmel/studio/7.0/toolchain/arm/arm-gnu-toolchain/bin/../lib/gcc/arm-none-eabi/5.3.1/../../../../arm-none-eabi/lib/armv6-m\libc_nano.a(lib_a-rand.o)
memchr                                            c:/program files (x86)/atmel/studio/7.0/toolchain/arm/arm-gnu-toolchain/bin/../lib/gcc/arm-none-eabi/5.3.1/../../../../arm-none-eabi/lib/armv6-m\libc_nano.a(lib_a-memchr-stub.o)
                                                  c:/program files (x86)/atmel/studio/7.0/toolchain/arm/arm-gnu-toolchain/bin/../lib/gcc/arm-none-eabi/5.3.1/../../../../arm-none-eabi/lib/armv6-m\libc_nano.a(lib_a-fvwrite.o)
                                                  c:/program files (x86)/atmel/studio/7.0/toolchain/arm/arm-gnu-toolchain/bin/../lib/gcc/arm-none-eabi/5.3.1/../../../../arm-none-eabi/lib/armv6-m\libc_nano.a(lib_a-nano-vfprintf_i.o)
                                                  c:/program files (x86)/atmel/studio/7.0/toolchain/arm/arm-gnu-toolchain/bin/../lib/gcc/arm-none-eabi/5.3.1/../../../../arm-none-eabi/lib/armv6-m\libc_nano.a(lib_a-nano-vfprintf.o)
                                                  c:/program files (x86)/atmel/studio/7.0/toolchain/arm/arm-gnu-toolchain/bin/../lib/gcc/arm-none-eabi/5.3.1/../../../../arm-none-eabi/lib/armv6-m\libc_nano.a(lib_a-nano-svfprintf.o)
memcmp                                            c:/program files (x86)/atmel/studio/7.0/toolchain/arm/arm-gnu-toolchain/bin/../lib/gcc/arm-none-eabi/5.3.1/../../../../arm-none-eabi/lib/armv6-m\libc_nano.a(lib_a-memcmp.o)
                                                  src/ASF/thirdparty/wireless/ble_smart_sdk/ble_services/ble_mgr/ble_manager.o
memcpy                                            c:/program files (x86)/atmel/studio/7.0/toolchain/arm/arm-gnu-toolchain/bin/../lib/gcc/arm-none-eabi/5.3.1/../../../../arm-none-eabi/lib/armv6-m\libc_nano.a(lib_a-memcpy-stub.o)
                                                  c:/program files (x86)/atmel/studio/7.0/toolchain/arm/arm-gnu-toolchain/bin/../lib/gcc/arm-none-eabi/5.3.1/../../../../arm-none-eabi/lib/armv6-m\libc_nano.a(lib_a-nano-reallocr.o)
                                                  c:/program files (x86)/atmel/studio/7.0/toolchain/arm/arm-gnu-toolchain/bin/../lib/gcc/arm-none-eabi/5.3.1/../../../../arm-none-eabi/lib/armv6-m\libc_nano.a(lib_a-fvwrite.o)
                                                  c:/program files (x86)/atmel/studio/7.0/toolchain/arm/arm-gnu-toolchain/bin/../lib/gcc/arm-none-eabi/5.3.1/../../../../arm-none-eabi/lib/armv6-m\libc_nano.a(lib_a-nano-svfprintf.o)
                                                  C:\Senior-Design\Cymote\Cymote2\Cymote2\src\ASF\thirdparty\wireless\ble_smart_sdk\lib\cm0\gcc\libblusdk.a(gattm_task.o)
                                                  C:\Senior-Design\Cymote\Cymote2\Cymote2\src\ASF\thirdparty\wireless\ble_smart_sdk\lib\cm0\gcc\libblusdk.a(gattc_task.o)
                                                  C:\Senior-Design\Cymote\Cymote2\Cymote2\src\ASF\thirdparty\wireless\ble_smart_sdk\lib\cm0\gcc\libblusdk.a(gapm_task.o)
                                                  C:\Senior-Design\Cymote\Cymote2\Cymote2\src\ASF\thirdparty\wireless\ble_smart_sdk\lib\cm0\gcc\libblusdk.a(gapc_task.o)
                                                  C:\Senior-Design\Cymote\Cymote2\Cymote2\src\ASF\thirdparty\wireless\ble_smart_sdk\lib\cm0\gcc\libblusdk.a(dbg_task.o)
                                                  C:\Senior-Design\Cymote\Cymote2\Cymote2\src\ASF\thirdparty\wireless\ble_smart_sdk\lib\cm0\gcc\libblusdk.a(interface.o)
                                                  C:\Senior-Design\Cymote\Cymote2\Cymote2\src\ASF\thirdparty\wireless\ble_smart_sdk\lib\cm0\gcc\libblusdk.a(security.o)
                                                  C:\Senior-Design\Cymote\Cymote2\Cymote2\src\ASF\thirdparty\wireless\ble_smart_sdk\lib\cm0\gcc\libblusdk.a(l2cc_task.o)
                                                  C:\Senior-Design\Cymote\Cymote2\Cymote2\src\ASF\thirdparty\wireless\ble_smart_sdk\lib\cm0\gcc\libblusdk.a(gatt_server.o)
                                                  C:\Senior-Design\Cymote\Cymote2\Cymote2\src\ASF\thirdparty\wireless\ble_smart_sdk\lib\cm0\gcc\libblusdk.a(gap.o)
                                                  src/main_sam_b.o
                                                  src/BLE.o
                                                  src/ASF/thirdparty/wireless/ble_smart_sdk/src/platform_drv.o
                                                  src/ASF/thirdparty/wireless/ble_smart_sdk/src/event_handler.o
                                                  src/ASF/thirdparty/wireless/ble_smart_sdk/ble_services/ble_mgr/ble_manager.o
memmove                                           c:/program files (x86)/atmel/studio/7.0/toolchain/arm/arm-gnu-toolchain/bin/../lib/gcc/arm-none-eabi/5.3.1/../../../../arm-none-eabi/lib/armv6-m\libc_nano.a(lib_a-memmove.o)
                                                  c:/program files (x86)/atmel/studio/7.0/toolchain/arm/arm-gnu-toolchain/bin/../lib/gcc/arm-none-eabi/5.3.1/../../../../arm-none-eabi/lib/armv6-m\libc_nano.a(lib_a-fvwrite.o)
                                                  c:/program files (x86)/atmel/studio/7.0/toolchain/arm/arm-gnu-toolchain/bin/../lib/gcc/arm-none-eabi/5.3.1/../../../../arm-none-eabi/lib/armv6-m\libc_nano.a(lib_a-nano-svfprintf.o)
memset                                            c:/program files (x86)/atmel/studio/7.0/toolchain/arm/arm-gnu-toolchain/bin/../lib/gcc/arm-none-eabi/5.3.1/../../../../arm-none-eabi/lib/armv6-m\libc_nano.a(lib_a-memset.o)
                                                  c:/program files (x86)/atmel/studio/7.0/toolchain/arm/arm-gnu-toolchain/bin/../lib/gcc/arm-none-eabi/5.3.1/../../../../arm-none-eabi/lib/armv6-m\libc_nano.a(lib_a-findfp.o)
                                                  C:\Senior-Design\Cymote\Cymote2\Cymote2\src\ASF\thirdparty\wireless\ble_smart_sdk\lib\cm0\gcc\libblusdk.a(gattm_task.o)
                                                  C:\Senior-Design\Cymote\Cymote2\Cymote2\src\ASF\thirdparty\wireless\ble_smart_sdk\lib\cm0\gcc\libblusdk.a(gapm_task.o)
                                                  C:\Senior-Design\Cymote\Cymote2\Cymote2\src\ASF\thirdparty\wireless\ble_smart_sdk\lib\cm0\gcc\libblusdk.a(gapc_task.o)
                                                  C:\Senior-Design\Cymote\Cymote2\Cymote2\src\ASF\thirdparty\wireless\ble_smart_sdk\lib\cm0\gcc\libblusdk.a(interface.o)
                                                  C:\Senior-Design\Cymote\Cymote2\Cymote2\src\ASF\thirdparty\wireless\ble_smart_sdk\lib\cm0\gcc\libblusdk.a(security.o)
                                                  C:\Senior-Design\Cymote\Cymote2\Cymote2\src\ASF\thirdparty\wireless\ble_smart_sdk\lib\cm0\gcc\libblusdk.a(gatt_server.o)
                                                  C:\Senior-Design\Cymote\Cymote2\Cymote2\src\ASF\thirdparty\wireless\ble_smart_sdk\lib\cm0\gcc\libblusdk.a(gap.o)
                                                  C:\Senior-Design\Cymote\Cymote2\Cymote2\src\ASF\thirdparty\wireless\ble_smart_sdk\lib\cm0\gcc\libblusdk.a(event.o)
                                                  src/main_sam_b.o
                                                  src/ASF/thirdparty/wireless/ble_smart_sdk/src/platform_drv.o
                                                  src/ASF/thirdparty/wireless/ble_smart_sdk/ble_services/ble_mgr/ble_manager.o
                                                  c:/program files (x86)/atmel/studio/7.0/toolchain/arm/arm-gnu-toolchain/bin/../lib/gcc/arm-none-eabi/5.3.1/../../../../arm-none-eabi/lib/armv6-m/crt0.o
pf_cfg                                            src/ASF/thirdparty/wireless/ble_smart_sdk/ble_services/ble_mgr/ble_manager.o
platform_chip_reset                               src/ASF/thirdparty/wireless/ble_smart_sdk/src/platform_drv.o
platform_cmd_cmpl_signal                          C:\Senior-Design\Cymote\Cymote2\Cymote2\src\ASF\thirdparty\wireless\ble_smart_sdk\lib\cm0\gcc\libblusdk.a(interface.o)
                                                  C:\Senior-Design\Cymote\Cymote2\Cymote2\src\ASF\thirdparty\wireless\ble_smart_sdk\lib\cm0\gcc\libblusdk.a(event.o)
platform_cmd_cmpl_wait                            C:\Senior-Design\Cymote\Cymote2\Cymote2\src\ASF\thirdparty\wireless\ble_smart_sdk\lib\cm0\gcc\libblusdk.a(interface.o)
                                                  C:\Senior-Design\Cymote\Cymote2\Cymote2\src\ASF\thirdparty\wireless\ble_smart_sdk\lib\cm0\gcc\libblusdk.a(gattm_task.o)
                                                  C:\Senior-Design\Cymote\Cymote2\Cymote2\src\ASF\thirdparty\wireless\ble_smart_sdk\lib\cm0\gcc\libblusdk.a(gapm_task.o)
                                                  C:\Senior-Design\Cymote\Cymote2\Cymote2\src\ASF\thirdparty\wireless\ble_smart_sdk\lib\cm0\gcc\libblusdk.a(gapc_task.o)
                                                  C:\Senior-Design\Cymote\Cymote2\Cymote2\src\ASF\thirdparty\wireless\ble_smart_sdk\lib\cm0\gcc\libblusdk.a(dbg_task.o)
                                                  C:\Senior-Design\Cymote\Cymote2\Cymote2\src\ASF\thirdparty\wireless\ble_smart_sdk\lib\cm0\gcc\libblusdk.a(calib_task.o)
platform_driver_init                              src/ASF/thirdparty/wireless/ble_smart_sdk/src/platform_drv.o
                                                  C:\Senior-Design\Cymote\Cymote2\Cymote2\src\ASF\thirdparty\wireless\ble_smart_sdk\lib\cm0\gcc\libblusdk.a(gap.o)
                                                  src/main_sam_b.o
platform_event_free                               src/ASF/thirdparty/wireless/ble_smart_sdk/src/event_handler.o
platform_event_get                                src/ASF/thirdparty/wireless/ble_smart_sdk/src/event_handler.o
platform_event_init                               src/ASF/thirdparty/wireless/ble_smart_sdk/src/event_handler.o
                                                  src/ASF/thirdparty/wireless/ble_smart_sdk/src/platform_drv.o
platform_event_post                               src/ASF/thirdparty/wireless/ble_smart_sdk/src/event_handler.o
                                                  src/ASF/thirdparty/wireless/ble_smart_sdk/src/platform_drv.o
platform_event_wait                               src/ASF/thirdparty/wireless/ble_smart_sdk/src/platform_drv.o
                                                  C:\Senior-Design\Cymote\Cymote2\Cymote2\src\ASF\thirdparty\wireless\ble_smart_sdk\lib\cm0\gcc\libblusdk.a(interface.o)
                                                  C:\Senior-Design\Cymote\Cymote2\Cymote2\src\ASF\thirdparty\wireless\ble_smart_sdk\lib\cm0\gcc\libblusdk.a(event.o)
                                                  src/ASF/thirdparty/wireless/ble_smart_sdk/src/event_handler.o
platform_initialized                              src/ASF/thirdparty/wireless/ble_smart_sdk/src/platform_drv.o
platform_interface_send                           src/ASF/thirdparty/wireless/ble_smart_sdk/src/platform_drv.o
                                                  C:\Senior-Design\Cymote\Cymote2\Cymote2\src\ASF\thirdparty\wireless\ble_smart_sdk\lib\cm0\gcc\libblusdk.a(interface.o)
platform_register_ble_msg_handler                 src/ASF/thirdparty/wireless/ble_smart_sdk/src/platform_drv.o
                                                  C:\Senior-Design\Cymote\Cymote2\Cymote2\src\ASF\thirdparty\wireless\ble_smart_sdk\lib\cm0\gcc\libblusdk.a(gap.o)
platform_register_isr                             src/ASF/thirdparty/wireless/ble_smart_sdk/src/platform_drv.o
platform_unregister_isr                           src/ASF/thirdparty/wireless/ble_smart_sdk/src/platform_drv.o
plf_event_buff_index                              src/ASF/thirdparty/wireless/ble_smart_sdk/src/platform_drv.o
port_list                                         src/ASF/thirdparty/wireless/ble_smart_sdk/src/platform_drv.o
prepare_send_buffer                               src/main_sam_b.o
prepare_send_buffer_timer                         src/main_sam_b.o
presentation_format_uuid                          C:\Senior-Design\Cymote\Cymote2\Cymote2\src\ASF\thirdparty\wireless\ble_smart_sdk\lib\cm0\gcc\libblusdk.a(gatt_server.o)
primary_service_uuid                              C:\Senior-Design\Cymote\Cymote2\Cymote2\src\ASF\thirdparty\wireless\ble_smart_sdk\lib\cm0\gcc\libblusdk.a(gatt_server.o)
print_calculated_accelerometer                    src/LSM9DS0.o
print_raw_gyroscope                               src/LSM9DS0.o
printf                                            c:/program files (x86)/atmel/studio/7.0/toolchain/arm/arm-gnu-toolchain/bin/../lib/gcc/arm-none-eabi/5.3.1/../../../../arm-none-eabi/lib/armv6-m\libc_nano.a(lib_a-printf.o)
                                                  src/main_sam_b.o
                                                  src/LSM9DS0.o
                                                  src/BLE.o
                                                  src/ASF/thirdparty/wireless/ble_smart_sdk/ble_services/ble_mgr/ble_manager.o
ptr_get                                           src/ASF/sam0/utils/stdio/read.o
                                                  src/LSM9DS1.o
                                                  src/LSM9DS0.o
                                                  src/ASF/thirdparty/wireless/ble_smart_sdk/services/uart/console_serial.o
ptr_put                                           src/ASF/sam0/utils/stdio/write.o
                                                  src/LSM9DS1.o
                                                  src/LSM9DS0.o
                                                  src/ASF/thirdparty/wireless/ble_smart_sdk/services/uart/console_serial.o
ptstrattDb                                        C:\Senior-Design\Cymote\Cymote2\Cymote2\src\ASF\thirdparty\wireless\ble_smart_sdk\lib\cm0\gcc\libblusdk.a(gatt_server.o)
pu8valuesBuffer                                   C:\Senior-Design\Cymote\Cymote2\Cymote2\src\ASF\thirdparty\wireless\ble_smart_sdk\lib\cm0\gcc\libblusdk.a(gatt_server.o)
pu8valuesBufferEnd                                C:\Senior-Design\Cymote\Cymote2\Cymote2\src\ASF\thirdparty\wireless\ble_smart_sdk\lib\cm0\gcc\libblusdk.a(gatt_server.o)
putc                                              c:/program files (x86)/atmel/studio/7.0/toolchain/arm/arm-gnu-toolchain/bin/../lib/gcc/arm-none-eabi/5.3.1/../../../../arm-none-eabi/lib/armv6-m\libc_nano.a(lib_a-putc.o)
putchar                                           c:/program files (x86)/atmel/studio/7.0/toolchain/arm/arm-gnu-toolchain/bin/../lib/gcc/arm-none-eabi/5.3.1/../../../../arm-none-eabi/lib/armv6-m\libc_nano.a(lib_a-putchar.o)
                                                  src/ASF/thirdparty/wireless/ble_smart_sdk/ble_services/ble_mgr/ble_manager.o
puts                                              c:/program files (x86)/atmel/studio/7.0/toolchain/arm/arm-gnu-toolchain/bin/../lib/gcc/arm-none-eabi/5.3.1/../../../../arm-none-eabi/lib/armv6-m\libc_nano.a(lib_a-puts.o)
                                                  src/main_sam_b.o
                                                  src/LSM9DS1.o
                                                  src/LSM9DS0.o
                                                  src/BLE.o
                                                  src/ASF/thirdparty/wireless/ble_smart_sdk/ble_services/ble_mgr/ble_manager.o
pwm_disable                                       src/ASF/sam0/drivers/pwm/pwm.o
pwm_enable                                        src/ASF/sam0/drivers/pwm/pwm.o
pwm_get_config_defaults                           src/ASF/sam0/drivers/pwm/pwm.o
pwm_init                                          src/ASF/sam0/drivers/pwm/pwm.o
pwm_reset                                         src/ASF/sam0/drivers/pwm/pwm.o
pwm_set_duty_cycle                                src/ASF/sam0/drivers/pwm/pwm.o
pwm_set_period                                    src/ASF/sam0/drivers/pwm/pwm.o
rand                                              c:/program files (x86)/atmel/studio/7.0/toolchain/arm/arm-gnu-toolchain/bin/../lib/gcc/arm-none-eabi/5.3.1/../../../../arm-none-eabi/lib/armv6-m\libc_nano.a(lib_a-rand.o)
                                                  src/ASF/thirdparty/wireless/ble_smart_sdk/ble_services/ble_mgr/ble_manager.o
read_32_from_BTLC1000                             C:\Senior-Design\Cymote\Cymote2\Cymote2\src\ASF\thirdparty\wireless\ble_smart_sdk\lib\cm0\gcc\libblusdk.a(gap.o)
read_status                                       src/ASF/thirdparty/wireless/ble_smart_sdk/services/uart/console_serial.o
register_ble_user_event_cb                        src/ASF/thirdparty/wireless/ble_smart_sdk/ble_services/ble_mgr/ble_manager.o
register_resume_callback                          src/ASF/thirdparty/wireless/ble_smart_sdk/src/platform_drv.o
register_uart_callback                            src/ASF/thirdparty/wireless/ble_smart_sdk/services/uart/console_serial.o
release_message_lock                              src/ASF/thirdparty/wireless/ble_smart_sdk/src/platform_drv.o
                                                  C:\Senior-Design\Cymote\Cymote2\Cymote2\src\ASF\thirdparty\wireless\ble_smart_sdk\lib\cm0\gcc\libblusdk.a(interface.o)
                                                  C:\Senior-Design\Cymote\Cymote2\Cymote2\src\ASF\thirdparty\wireless\ble_smart_sdk\lib\cm0\gcc\libblusdk.a(event.o)
release_sleep_lock                                src/ASF/thirdparty/wireless/ble_smart_sdk/src/platform_drv.o
                                                  src/ASF/thirdparty/wireless/ble_smart_sdk/ble_services/ble_mgr/ble_manager.o
rwip_prevent_sleep_clear                          src/ASF/thirdparty/wireless/ble_smart_sdk/src/platform_drv.o
rwip_prevent_sleep_set                            src/ASF/thirdparty/wireless/ble_smart_sdk/src/platform_drv.o
rx_buffer                                         src/ASF/thirdparty/wireless/ble_smart_sdk/src/platform_drv.o
rx_callback                                       C:\Senior-Design\Cymote\Cymote2\Cymote2\src\ASF\thirdparty\wireless\ble_smart_sdk\lib\cm0\gcc\libblusdk.a(interface.o)
                                                  C:\Senior-Design\Cymote\Cymote2\Cymote2\src\ASF\thirdparty\wireless\ble_smart_sdk\lib\cm0\gcc\libblusdk.a(gap.o)
samb11_app_resume_cb                              src/ASF/thirdparty/wireless/ble_smart_sdk/src/platform_drv.o
samb11_plf_resume_callback                        src/ASF/thirdparty/wireless/ble_smart_sdk/src/platform_drv.o
scan_info                                         src/ASF/thirdparty/wireless/ble_smart_sdk/ble_services/ble_mgr/ble_manager.o
scan_info_parse                                   src/ASF/thirdparty/wireless/ble_smart_sdk/ble_services/ble_mgr/ble_manager.o
scan_response_count                               src/ASF/thirdparty/wireless/ble_smart_sdk/ble_services/ble_mgr/ble_manager.o
secondary_service_uuid                            C:\Senior-Design\Cymote\Cymote2\Cymote2\src\ASF\thirdparty\wireless\ble_smart_sdk\lib\cm0\gcc\libblusdk.a(gatt_server.o)
send_plf_int_msg_ind                              src/ASF/thirdparty/wireless/ble_smart_sdk/src/platform_drv.o
                                                  src/main_sam_b.o
serial_console_init                               src/ASF/thirdparty/wireless/ble_smart_sdk/services/uart/console_serial.o
                                                  src/main_sam_b.o
server_conf_uuid                                  C:\Senior-Design\Cymote\Cymote2\Cymote2\src\ASF\thirdparty\wireless\ble_smart_sdk\lib\cm0\gcc\libblusdk.a(gatt_server.o)
service_setup_buffer                              C:\Senior-Design\Cymote\Cymote2\Cymote2\src\ASF\thirdparty\wireless\ble_smart_sdk\lib\cm0\gcc\libblusdk.a(gatt_server.o)
set_LED                                           src/LED.o
                                                  src/main_sam_b.o
setbuf                                            c:/program files (x86)/atmel/studio/7.0/toolchain/arm/arm-gnu-toolchain/bin/../lib/gcc/arm-none-eabi/5.3.1/../../../../arm-none-eabi/lib/armv6-m\libc_nano.a(lib_a-setbuf.o)
                                                  src/LSM9DS1.o
                                                  src/LSM9DS0.o
                                                  src/ASF/thirdparty/wireless/ble_smart_sdk/services/uart/console_serial.o
setup_LED                                         src/LED.o
                                                  src/main_sam_b.o
setvbuf                                           c:/program files (x86)/atmel/studio/7.0/toolchain/arm/arm-gnu-toolchain/bin/../lib/gcc/arm-none-eabi/5.3.1/../../../../arm-none-eabi/lib/armv6-m\libc_nano.a(lib_a-setvbuf.o)
                                                  c:/program files (x86)/atmel/studio/7.0/toolchain/arm/arm-gnu-toolchain/bin/../lib/gcc/arm-none-eabi/5.3.1/../../../../arm-none-eabi/lib/armv6-m\libc_nano.a(lib_a-setbuf.o)
sniprintf                                         c:/program files (x86)/atmel/studio/7.0/toolchain/arm/arm-gnu-toolchain/bin/../lib/gcc/arm-none-eabi/5.3.1/../../../../arm-none-eabi/lib/armv6-m\libc_nano.a(lib_a-snprintf.o)
snprintf                                          c:/program files (x86)/atmel/studio/7.0/toolchain/arm/arm-gnu-toolchain/bin/../lib/gcc/arm-none-eabi/5.3.1/../../../../arm-none-eabi/lib/armv6-m\libc_nano.a(lib_a-snprintf.o)
                                                  src/main_sam_b.o
software_init_hook                                c:/program files (x86)/atmel/studio/7.0/toolchain/arm/arm-gnu-toolchain/bin/../lib/gcc/arm-none-eabi/5.3.1/../../../../arm-none-eabi/lib/armv6-m/crt0.o
special_events_handler                            C:\Senior-Design\Cymote\Cymote2\Cymote2\src\ASF\thirdparty\wireless\ble_smart_sdk\lib\cm0\gcc\libblusdk.a(event.o)
                                                  C:\Senior-Design\Cymote\Cymote2\Cymote2\src\ASF\thirdparty\wireless\ble_smart_sdk\lib\cm0\gcc\libblusdk.a(interface.o)
srand                                             c:/program files (x86)/atmel/studio/7.0/toolchain/arm/arm-gnu-toolchain/bin/../lib/gcc/arm-none-eabi/5.3.1/../../../../arm-none-eabi/lib/armv6-m\libc_nano.a(lib_a-rand.o)
start_timer                                       C:\Senior-Design\Cymote\Cymote2\Cymote2\src\ASF\thirdparty\wireless\ble_smart_sdk\lib\cm0\gcc\libblusdk.a(interface.o)
                                                  C:\Senior-Design\Cymote\Cymote2\Cymote2\src\ASF\thirdparty\wireless\ble_smart_sdk\lib\cm0\gcc\libblusdk.a(event.o)
stdio_base                                        src/ASF/sam0/utils/stdio/write.o
                                                  src/LSM9DS1.o
                                                  src/LSM9DS0.o
                                                  src/ASF/thirdparty/wireless/ble_smart_sdk/services/uart/console_serial.o
                                                  src/ASF/sam0/utils/stdio/read.o
stop_timer                                        C:\Senior-Design\Cymote\Cymote2\Cymote2\src\ASF\thirdparty\wireless\ble_smart_sdk\lib\cm0\gcc\libblusdk.a(interface.o)
                                                  C:\Senior-Design\Cymote\Cymote2\Cymote2\src\ASF\thirdparty\wireless\ble_smart_sdk\lib\cm0\gcc\libblusdk.a(event.o)
string_input                                      src/ASF/thirdparty/wireless/ble_smart_sdk/services/uart/console_serial.o
strlen                                            c:/program files (x86)/atmel/studio/7.0/toolchain/arm/arm-gnu-toolchain/bin/../lib/gcc/arm-none-eabi/5.3.1/../../../../arm-none-eabi/lib/armv6-m\libc_nano.a(lib_a-strlen.o)
                                                  src/BLE.o
system_board_init                                 src/ASF/sam0/boards/samb11_xplained_pro/board_init.o
system_calibration_get_config_defaults            src/ASF/sam0/drivers/system/system_sam_b.o
system_calibration_get_interrupt_status           src/ASF/sam0/drivers/system/system_sam_b.o
system_calibration_set_config                     src/ASF/sam0/drivers/system/system_sam_b.o
system_clock_aon_config                           src/ASF/sam0/drivers/system/system_sam_b.o
system_clock_config                               src/ASF/sam0/drivers/system/system_sam_b.o
                                                  src/main_sam_b.o
                                                  src/ASF/thirdparty/wireless/ble_smart_sdk/services/uart/console_serial.o
system_clock_get_value                            src/ASF/sam0/drivers/system/system_sam_b.o
                                                  src/ASF/thirdparty/wireless/ble_smart_sdk/services/uart/console_serial.o
                                                  src/ASF/sam0/drivers/uart/uart.o
system_clock_peripheral_aon_disable               src/ASF/sam0/drivers/system/system_sam_b.o
system_clock_peripheral_aon_enable                src/ASF/sam0/drivers/system/system_sam_b.o
system_clock_peripheral_disable                   src/ASF/sam0/drivers/system/system_sam_b.o
                                                  src/ASF/sam0/drivers/pwm/pwm.o
                                                  src/ASF/sam0/drivers/adc/adc_sam_b/adc_sam_b.o
system_clock_peripheral_enable                    src/ASF/sam0/drivers/system/system_sam_b.o
                                                  src/ASF/sam0/drivers/uart/uart.o
                                                  src/ASF/sam0/drivers/pwm/pwm.o
                                                  src/ASF/sam0/drivers/adc/adc_sam_b/adc_sam_b.o
system_clock_peripheral_freq_config               src/ASF/sam0/drivers/system/system_sam_b.o
system_clock_value                                src/ASF/sam0/drivers/system/system_sam_b.o
system_global_reset                               src/ASF/sam0/drivers/system/system_sam_b.o
system_osc_calibration_clear_status               src/ASF/sam0/drivers/system/system_sam_b.o
system_osc_calibration_disable                    src/ASF/sam0/drivers/system/system_sam_b.o
system_osc_calibration_enable                     src/ASF/sam0/drivers/system/system_sam_b.o
system_osc_calibration_get_status                 src/ASF/sam0/drivers/system/system_sam_b.o
system_osc_calibration_result                     src/ASF/sam0/drivers/system/system_sam_b.o
system_peripheral_reset                           src/ASF/sam0/drivers/system/system_sam_b.o
                                                  src/ASF/sam0/drivers/uart/uart.o
                                                  src/ASF/sam0/drivers/dualtimer/dualtimer.o
                                                  src/ASF/sam0/drivers/timer/timer.o
                                                  src/ASF/sam0/drivers/pwm/pwm.o
                                                  src/ASF/sam0/drivers/adc/adc_sam_b/adc_sam_b.o
system_register_isr                               src/ASF/sam0/drivers/system/system_sam_b.o
                                                  src/ASF/sam0/drivers/uart/uart.o
                                                  src/ASF/sam0/drivers/gpio/gpio.o
                                                  src/ASF/sam0/drivers/dualtimer/dualtimer.o
                                                  src/ASF/sam0/drivers/timer/timer.o
system_rtc_calibration_clear_status               src/ASF/sam0/drivers/system/system_sam_b.o
system_rtc_calibration_disable                    src/ASF/sam0/drivers/system/system_sam_b.o
system_rtc_calibration_enable                     src/ASF/sam0/drivers/system/system_sam_b.o
system_rtc_calibration_get_status                 src/ASF/sam0/drivers/system/system_sam_b.o
system_rtc_calibration_result                     src/ASF/sam0/drivers/system/system_sam_b.o
system_unregister_isr                             src/ASF/sam0/drivers/system/system_sam_b.o
tick                                              src/ASF/thirdparty/wireless/ble_smart_sdk/services/uart/console_serial.o
time_ms                                           src/main_sam_b.o
timer_clear_interrupt_status                      src/ASF/sam0/drivers/timer/timer.o
timer_disable                                     src/ASF/sam0/drivers/timer/timer.o
timer_enable                                      src/ASF/sam0/drivers/timer/timer.o
timer_get_config_defaults                         src/ASF/sam0/drivers/timer/timer.o
timer_get_interrupt_status                        src/ASF/sam0/drivers/timer/timer.o
timer_get_value                                   src/ASF/sam0/drivers/timer/timer.o
timer_init                                        src/ASF/sam0/drivers/timer/timer.o
timer_register_callback                           src/ASF/sam0/drivers/timer/timer.o
timer_set_value                                   src/ASF/sam0/drivers/timer/timer.o
timer_unregister_callback                         src/ASF/sam0/drivers/timer/timer.o
u32dbMemorySize                                   C:\Senior-Design\Cymote\Cymote2\Cymote2\src\ASF\thirdparty\wireless\ble_smart_sdk\lib\cm0\gcc\libblusdk.a(gatt_server.o)
                                                  C:\Senior-Design\Cymote\Cymote2\Cymote2\src\ASF\thirdparty\wireless\ble_smart_sdk\lib\cm0\gcc\libblusdk.a(gattm_task.o)
u32numberOfValues                                 C:\Senior-Design\Cymote\Cymote2\Cymote2\src\ASF\thirdparty\wireless\ble_smart_sdk\lib\cm0\gcc\libblusdk.a(gatt_server.o)
u32usedBuffers                                    C:\Senior-Design\Cymote\Cymote2\Cymote2\src\ASF\thirdparty\wireless\ble_smart_sdk\lib\cm0\gcc\libblusdk.a(gattm_task.o)
                                                  C:\Senior-Design\Cymote\Cymote2\Cymote2\src\ASF\thirdparty\wireless\ble_smart_sdk\lib\cm0\gcc\libblusdk.a(gattc_task.o)
                                                  C:\Senior-Design\Cymote\Cymote2\Cymote2\src\ASF\thirdparty\wireless\ble_smart_sdk\lib\cm0\gcc\libblusdk.a(gatt_server.o)
                                                  C:\Senior-Design\Cymote\Cymote2\Cymote2\src\ASF\thirdparty\wireless\ble_smart_sdk\lib\cm0\gcc\libblusdk.a(gap.o)
uart_disable_callback                             src/ASF/sam0/drivers/uart/uart.o
                                                  src/ASF/thirdparty/wireless/ble_smart_sdk/services/uart/console_serial.o
uart_disable_receive_dma                          src/ASF/sam0/drivers/uart/uart.o
uart_disable_transmit_dma                         src/ASF/sam0/drivers/uart/uart.o
uart_enable_callback                              src/ASF/sam0/drivers/uart/uart.o
                                                  src/ASF/thirdparty/wireless/ble_smart_sdk/services/uart/console_serial.o
uart_enable_receive_dma                           src/ASF/sam0/drivers/uart/uart.o
uart_enable_transmit_dma                          src/ASF/sam0/drivers/uart/uart.o
uart_get_config_defaults                          src/ASF/sam0/drivers/uart/uart.o
                                                  src/LSM9DS1.o
                                                  src/LSM9DS0.o
                                                  src/ASF/thirdparty/wireless/ble_smart_sdk/services/uart/console_serial.o
uart_init                                         src/ASF/sam0/drivers/uart/uart.o
                                                  src/LSM9DS1.o
                                                  src/LSM9DS0.o
                                                  src/ASF/thirdparty/wireless/ble_smart_sdk/services/uart/console_serial.o
uart_instance                                     src/ASF/thirdparty/wireless/ble_smart_sdk/services/uart/console_serial.o
uart_read_buffer_job                              src/ASF/sam0/drivers/uart/uart.o
                                                  src/ASF/thirdparty/wireless/ble_smart_sdk/services/uart/console_serial.o
uart_read_buffer_wait                             src/ASF/sam0/drivers/uart/uart.o
uart_read_wait                                    src/ASF/sam0/drivers/uart/uart.o
                                                  src/LSM9DS1.o
                                                  src/LSM9DS0.o
                                                  src/ASF/thirdparty/wireless/ble_smart_sdk/services/uart/console_serial.o
uart_register_callback                            src/ASF/sam0/drivers/uart/uart.o
                                                  src/ASF/thirdparty/wireless/ble_smart_sdk/services/uart/console_serial.o
uart_unregister_callback                          src/ASF/sam0/drivers/uart/uart.o
uart_write_buffer_job                             src/ASF/sam0/drivers/uart/uart.o
uart_write_buffer_wait                            src/ASF/sam0/drivers/uart/uart.o
uart_write_wait                                   src/ASF/sam0/drivers/uart/uart.o
                                                  src/LSM9DS1.o
                                                  src/LSM9DS0.o
                                                  src/ASF/thirdparty/wireless/ble_smart_sdk/services/uart/console_serial.o
ulp_status                                        src/ASF/thirdparty/wireless/ble_smart_sdk/ble_services/ble_mgr/ble_manager.o
unNull                                            C:\Senior-Design\Cymote\Cymote2\Cymote2\src\ASF\thirdparty\wireless\ble_smart_sdk\lib\cm0\gcc\libblusdk.a(gatt_server.o)
                                                  C:\Senior-Design\Cymote\Cymote2\Cymote2\src\ASF\thirdparty\wireless\ble_smart_sdk\lib\cm0\gcc\libblusdk.a(gap.o)
updateuartbr_fp                                   src/ASF/thirdparty/wireless/ble_smart_sdk/src/platform_drv.o
user_callback_func                                src/ASF/thirdparty/wireless/ble_smart_sdk/services/uart/console_serial.o
user_desc_uuid                                    C:\Senior-Design\Cymote\Cymote2\Cymote2\src\ASF\thirdparty\wireless\ble_smart_sdk\lib\cm0\gcc\libblusdk.a(gatt_server.o)
vfiprintf                                         c:/program files (x86)/atmel/studio/7.0/toolchain/arm/arm-gnu-toolchain/bin/../lib/gcc/arm-none-eabi/5.3.1/../../../../arm-none-eabi/lib/armv6-m\libc_nano.a(lib_a-nano-vfprintf.o)
vfprintf                                          c:/program files (x86)/atmel/studio/7.0/toolchain/arm/arm-gnu-toolchain/bin/../lib/gcc/arm-none-eabi/5.3.1/../../../../arm-none-eabi/lib/armv6-m\libc_nano.a(lib_a-nano-vfprintf.o)
wakeup_active_event_callback                      src/ASF/thirdparty/wireless/ble_smart_sdk/src/port_from_sdk.o
                                                  src/ASF/thirdparty/wireless/ble_smart_sdk/src/platform_drv.o
wakeup_event_pending                              src/ASF/thirdparty/wireless/ble_smart_sdk/src/platform_drv.o
wakeup_int_unregister_callback                    src/ASF/thirdparty/wireless/ble_smart_sdk/src/port_from_sdk.o
                                                  src/ASF/thirdparty/wireless/ble_smart_sdk/src/platform_drv.o
wakeup_source_active_cb                           src/ASF/thirdparty/wireless/ble_smart_sdk/src/platform_drv.o
wakeup_source_callback                            src/ASF/thirdparty/wireless/ble_smart_sdk/src/port_from_sdk.o
watched_event                                     C:\Senior-Design\Cymote\Cymote2\Cymote2\src\ASF\thirdparty\wireless\ble_smart_sdk\lib\cm0\gcc\libblusdk.a(event.o)
                                                  C:\Senior-Design\Cymote\Cymote2\Cymote2\src\ASF\thirdparty\wireless\ble_smart_sdk\lib\cm0\gcc\libblusdk.a(gattm_task.o)
                                                  C:\Senior-Design\Cymote\Cymote2\Cymote2\src\ASF\thirdparty\wireless\ble_smart_sdk\lib\cm0\gcc\libblusdk.a(gapm_task.o)
                                                  C:\Senior-Design\Cymote\Cymote2\Cymote2\src\ASF\thirdparty\wireless\ble_smart_sdk\lib\cm0\gcc\libblusdk.a(gapc_task.o)
                                                  C:\Senior-Design\Cymote\Cymote2\Cymote2\src\ASF\thirdparty\wireless\ble_smart_sdk\lib\cm0\gcc\libblusdk.a(dbg_task.o)
                                                  C:\Senior-Design\Cymote\Cymote2\Cymote2\src\ASF\thirdparty\wireless\ble_smart_sdk\lib\cm0\gcc\libblusdk.a(calib_task.o)
